(lp0
(S'$AAPL One billion images. Difference between AAPL and Samsung? AAPL doesn&#39;t release a half-assed product.'
p1
S'Bullish'
p2
tp3
a(S'@_Pony_ $AAPL makes a phone you can boil in water for 30 minutes. Who does that? There&#39;s a reason Apple has sold over 1 Billion iPhone&#39;s'
p4
S'Bullish'
p5
tp6
a(S'@_Pony_ Come on Pony you still ragging on $AAPL. Yes, if you drop the phone it may break. If you plop down a $1000 4 a phone buy a cover.'
p7
S'Bullish'
p8
tp9
a(S'$BA $LMT $RTN $HON $MMM $UTX Every time N. Korea do some shooting or Bomb test this stocks moving up Higher. Is gonna get more higher.'
p10
S'Bullish'
p11
tp12
a(S'$MMM Y U NO ALERT. @1simpletrader'
p13
S'Bullish'
p14
tp15
a(S'$MMM guessing it backs off $213 on first approach, and will have to wait Monday for confirmation although 1minute chart looks amazing'
p16
S'Bullish'
p17
tp18
a(S'watching $CAT over 121.50, scalp only, also watching $MMM over 213!'
p19
S'Bullish'
p20
tp21
a(S'$MMM setting up nicely for a break-out play'
p22
S'Bullish'
p23
tp24
a(S'$MMM target price 227.60$\n\nForecast from Dominant investors app'
p25
S'Bullish'
p26
tp27
a(S'@MariaC82 that&#39;s very sweet of you! will do soon, just need to get books &amp; acct in order first. r u following $AXP?'
p28
S'Bullish'
p29
tp30
a(S'$AXP Seems retails data today propelled the card companies. Strong retail and consumer spend is positive for this stock.'
p31
S'Bullish'
p32
tp33
a(S'$V Under 106 is a solid buy IMO $MA $AXP $PYPL $SQ'
p34
S'Bullish'
p35
tp36
a(S'$AXP $88'
p37
S'Bullish'
p38
tp39
a(S'$AXP target price 98.90$\n\nForecast from Dominant investors app'
p40
S'Bullish'
p41
tp42
a(S'$V $MA $AXP $DFS $SYF $GE $SC $EFX $EXPGF $TRU Consumer Debt And Credit Companies - The Eye Of The Storm https://brandpower.whotrades.com/blog/43533967007'
p43
S'Bullish'
p44
tp45
a(S'$T    AT&amp;T My Opinionated Monday trading forecast.                http://bit.ly/2yehvTK'
p46
S'Bullish'
p47
tp48
a(S'$T those 1/2018 34 puts sold a week ago looks damn good now. Free $$.'
p49
S'Bullish'
p50
tp51
a(S'$T ready to unleash the power next week !! Let&#39;s not fail !!'
p52
S'Bullish'
p53
tp54
a(S'$T I got my mind on the market, and the market on my mind. Profitable blessings to all. Enjoy the weekend @DayTradeWarrior'
p55
S'Bullish'
p56
tp57
a(S'$T Knew to buy at 35.60... just had strong feeling and glad I did '
p58
S'Bullish'
p59
tp60
a(S'$BA Stocks are like trees.....never touch the sky &amp; fall....&quot; Buffet quote....&quot;'
p61
S'Bullish'
p62
tp63
a(S'$BA Top Dow Stock Boeing Nears Buy Point As Widebody Demand Picks Up ??? YA RIGHT at 8 years top high??'
p64
S'Bullish'
p65
tp66
a(S'@stockbookie what do you think of this POS? $BA'
p67
S'Bullish'
p68
tp69
a(S'$BA still got some more room... would love to see it touch +$251\n(def got 1 more green day in a row)+'
p70
S'Bullish'
p71
tp72
a(S'$BA We will FLY through the 250 resistance..  just a few clouds in the sky...For those new here the fundamentals are  excellent'
p73
S'Bullish'
p74
tp75
a(S'$BA $LMT $RTN $HON $MMM $UTX Every time N. Korea do some shooting or Bomb test this stocks moving up Higher. Is gonna get more higher.'
p76
S'Bullish'
p77
tp78
a(S'$BA Just break out today... it should move up Higher. Way I see it another 7-8% upside.'
p79
S'Bullish'
p80
tp81
a(S'$BA is in MACD Golden Cross winning 75.00% in the past. https://goo.gl/mfvin6'
p82
S'Bullish'
p83
tp84
a(S'@peaches1 @gusmccrae @perfectvision Mostly blue chip. Some are on my watch list. All up 100% in 1 year some like $BA 200%  $DVAX + 400%'
p85
S'Bullish'
p86
tp87
a(S'$CAT http://www.barrons.com/articles/wall-streets-real-earnings-surprises-1505533909'
p88
S'Bullish'
p89
tp90
a(S'$CAT calls BOOM - take cost off now.. almost +100% with a week to go'
p91
S'Bullish'
p92
tp93
a(S'$CAT +30% with a week to go'
p94
S'Bullish'
p95
tp96
a(S'BTO $CAT sept 122c .46'
p97
S'Bullish'
p98
tp99
a(S'$SPY  Will check back after Europe closes $SVXY $MRVL $NVDA $FB $JPM $CELG $ALZN $VLO $CAT $RACE $LOW $AAPL ....'
p100
S'Bullish'
p101
tp102
a(S'watching $CAT over 121.50, scalp only, also watching $MMM over 213!'
p103
S'Bullish'
p104
tp105
a(S'$XLE $OIH $USO $XOP If your watching energy note $CVX .....'
p106
S'Bullish'
p107
tp108
a(S'$HAL $WLL $WFT $CVX $XOM Goldman-Sachs-Oil-Majors-See-Upside-At-50-Oil. M&amp;A time??\nhttp://oilprice.com/Energy/Oil-Prices/Goldman-Sachs-Oil-Majors-See-Upside-At-50-Oil.html'
p109
S'Bullish'
p110
tp111
a(S'Trimmed back watch list SVXY $TSLA $VLO $CVX $HAL ....'
p112
S'Bullish'
p113
tp114
a(S'Trade signal, 77% chance,$CVX will close above $114.45 support by end of session. Bullish. http://tradespoon.com/s.php?t=$CVX'
p115
S'Bullish'
p116
tp117
a(S'$OAS $BP $CVX Good summary of Baron Energy and Resources Letter- long thesis for energy names: https://investoralmanac.com/2017/07/31/baron-energy-and-resources-2q17-contradictions-plaguing-the-industry-peak-demand-really/'
p118
S'Bullish'
p119
tp120
a(S'$CVX'
p121
S'Bullish'
p122
tp123
a(S'$CVX pull back to 110 and then next stop 120 is my guess'
p124
S'Bullish'
p125
tp126
a(S'$CVX Chevron is a better chart than $XOM - CNBC'
p127
S'Bullish'
p128
tp129
a(S'$CVX Chevron is the way to go on energy comeback - now on CNBC'
p130
S'Bullish'
p131
tp132
a(S'$CSCO https://www.streetauthority.com/income-investing/tech-income-you-better-believe-it-30701454?utm_source=NL-SAD&amp;utm_medium=EMAIL&amp;U=94395282&amp;utm_campaign=SAD_Tech_For_Income?_You_Better_Believe_It..'
p133
S'Bullish'
p134
tp135
a(S'$CSCO Long setup'
p136
S'Bullish'
p137
tp138
a(S'$CSCO Another one for you mofoz!'
p139
S'Bullish'
p140
tp141
a(S'$CSCO slowest breakout ever lol been waiting'
p142
S'Bullish'
p143
tp144
a(S'$GSUM has brand clients like $KORS, $CSCO, partnerships with the likes of $TCEHY, growth is coming from areas like e-governance. Quality.'
p145
S'Bullish'
p146
tp147
a(S'$CSCO scalped.  $GE back in $23.78'
p148
S'Bullish'
p149
tp150
a(S'$DIS taking the kids to Orlando this weekend in a boat for free!'
p151
S'Bullish'
p152
tp153
a(S'$DIS watching football for free on air antennas this weekend!'
p154
S'Bullish'
p155
tp156
a(S'mother! In Theaters NOW. 5 STAR reviews! $CBS $FOXA $TWX $FB $TWTR $SNAP $SNE $DIS https://youtu.be/XpICoc65uh0'
p157
S'Bullish'
p158
tp159
a(S'$SFL $SFL technical alerts: MACD Bullish Signal Line Cross, MACD Bullish Centerline Cross,Volume Surge, Upside 200 DMA..  $USO $DE $DD $CHK'
p160
S'Bullish'
p161
tp162
a(S'$KYN is a showing BUY signal. oil hits 4 month high today! $OPK $DD $SQ $TSLA $SVRA $CSIQ $HALO $USO'
p163
S'Bullish'
p164
tp165
a(S'$SEED china wants to pump up corn production for ethanol https://www.reuters.com/article/us-china-biofuels-policy/china-set-for-ethanol-binge-as-beijing-pumps-up-renewable-fuel-drive-idUSKCN1BO17W GMO positive on its way. $DD $SYT $MON $DWDP'
p166
S'Bullish'
p167
tp168
a(S'DowDuPont Revises Breakup Plan Opposed by Activist Investors http://ow.ly/JkOA30f6RJ4 $DOW $DD'
p169
S'Bullish'
p170
tp171
a(S'the insider purchase is either a sign China is going positive or CEO will create a shareholder value event from scratch $DD $SYT $MON .'
p172
S'Bullish'
p173
tp174
a(S'$SEED L2 Capital deal is real savvy. It takes 33 years at $DD to land L2. HARVARD?HA! Maybe cut your salary like you cut every other plan.'
p175
S'Bullish'
p176
tp177
a(S'$HAL $WLL $WFT $CVX $XOM Goldman-Sachs-Oil-Majors-See-Upside-At-50-Oil. M&amp;A time??\nhttp://oilprice.com/Energy/Oil-Prices/Goldman-Sachs-Oil-Majors-See-Upside-At-50-Oil.html'
p178
S'Bullish'
p179
tp180
a(S'$XOM is Bullish above $79.93. Trade near  $79.93 http://tradespoon.com/s.php?t=$XOM'
p181
S'Bullish'
p182
tp183
a(S'$XOM am a little suprised that i was correct to buy back my put spread for sept. The downstream side of exxon has to be making a killing.'
p184
S'Bullish'
p185
tp186
a(S'Trade alert, 81% chance,$XOM will close above $80.09 support by end of session. Bullish. http://tradespoon.com/s.php?t=$XOM'
p187
S'Bullish'
p188
tp189
a(S'$GE $BHP $BBL Once in a Lifetime Opportunity to Profit from Commodity Stocks - Great Read: https://investoralmanac.com/2017/09/16/once-in-an-investment-lifetime-opportunity-to-profit-in-commodities/'
p190
S'Bullish'
p191
tp192
a(S'$GE  finally thank you thank you thank you RBC Capital reiterates Buy rating, $31 PT (long live RBC Capital)'
p193
S'Bullish'
p194
tp195
a(S'$GE only reason down Friday. Ex dividend date.'
p196
S'Bullish'
p197
tp198
a(S'$GE opened a new position just under $24... hoping this dips more so I can load up for the long haul '
p199
S'Bullish'
p200
tp201
a(S'$GE got in at 24, will adjust position higher if it dips further'
p202
S'Bullish'
p203
tp204
a(S'$SPY parabolic move up in banks very possible within the nest 2 weeks IMO,,, $XLF $GS $JPM $BAC $CS $UBS'
p205
S'Bullish'
p206
tp207
a(S'$GS   For Monday.  Call options bought $227.5 strike sept 22 expiration.'
p208
S'Bullish'
p209
tp210
a(S'$HD $GNRC up 5%, who sells Generac generators? You got that right!'
p211
S'Bullish'
p212
tp213
a(S'@DoobieDan we shall be rich brother ...my portfolio is exactly that.. plus small stake in $HD and $AMD'
p214
S'Bullish'
p215
tp216
a(S'$HD $LOW what&#39;s a reasonable amount of time after Harvey and Irma for analysts to begin increasing their PT?'
p217
S'Bullish'
p218
tp219
a(S'$HD Where does everyone see this going next 2 weeks? +$165?'
p220
S'Bullish'
p221
tp222
a(S'$HD $AAPL \nI just hold these stocks so my father won&#39;t bitch at me for being wreckless'
p223
S'Bullish'
p224
tp225
a(S'$HD Wow! That volume spiked last two hours. Especially last 30 minutes.'
p226
S'Bullish'
p227
tp228
a(S'$HD Added a couple of 160 weeklies September 22nd on this spike. Too cheap, couldn&#39;t help myself.'
p229
S'Bullish'
p230
tp231
a(S'$HD Algo low volume OPEX death grip on this one. How the game is played. $155 or below nxt week, I&#39;m adding BIGLY!'
p232
S'Bullish'
p233
tp234
a(S'$HD Added some common here for my retirement also. I&#39;m all stocked up on monthly October &amp; November calls w/ some Sept 22nd 157.50 weeklies'
p235
S'Bullish'
p236
tp237
a(S'Focus on Gold, Silver, Precious Metals Mining and Royalty Streaming\n\n$GLD,$SLV,$EXCFF,$IBM  http://www.livetradingnews.com/focus-gold-silver-precious-metals-mining-royalty-streaming-54897.html#.WbylMch96M8'
p238
S'Bullish'
p239
tp240
a(S'@Daisy7 Make no mistake, $IBM will successfully adapt to a new business model and continue to be a major player with outstanding value.'
p241
S'Bullish'
p242
tp243
a(S'$WKHS make electric Trucks and drones for law enforcement and civilian FLEETS. $TSLA $THO $GM $FSLR $VSLR $GE $TERP $SEDG $MBLY $IBM'
p244
S'Bullish'
p245
tp246
a(S'$INTL could be good closing on higher highs ?'
p247
S'Bullish'
p248
tp249
a(S'$AMD everything is red today. $intl, $Nvidia, $msft and so on. Great opportunity to buy it cheap'
p250
S'Bullish'
p251
tp252
a(S'$VUZI $INTL still holding their all position. DO NOT LISTEN SHORTS.'
p253
S'Bullish'
p254
tp255
a(S'$GUD.CA $VRX $JNJ GUD buys 18% in dirt cheap Synergy (SNYR), beauty &amp; pharma products, SA article:https://seekingalpha.com/instablog/526931-value-digger/5039277-synergy-chc-unknown-cheap-profitable-growth-stock-hot-innovative-brands'
p256
S'Bullish'
p257
tp258
a(S'Trade alert, 73% chance,$JNJ will close above $134.45 support by end of session. Bullish. http://tradespoon.com/s.php?t=$JNJ'
p259
S'Bullish'
p260
tp261
a(S'$JNJ Holding Oct 135 &amp; 140 calls. Could achieve a new 52 week high by month-end'
p262
S'Bullish'
p263
tp264
a(S'@CuddleBunny @LittleA @TickrTalk A buyout had been discussed in the past but nothing recent. 2 that I can think of were $JNJ and $PFE'
p265
S'Bullish'
p266
tp267
a(S'Volume on TITXF spiking, way behind TRXC in FDA process but has some good intellectual property/patents. Both are $MDT $JNJ targets'
p268
S'Bullish'
p269
tp270
a(S'$MRTX $AUPH $MRK $JNJ all BIO should be buying THIS! 150% in a day, 300% in 2 days, 1000% in 3 dayss!!!'
p271
S'Bullish'
p272
tp273
a(S'$JNJ'
p274
S'Bullish'
p275
tp276
a(S'$JNJ good potential with the news higher price next week calls are looking great at the moment'
p277
S'Bullish'
p278
tp279
a(S'$BTC.X who is more trustworthy, Jamie Dimon of $jpm, CFO John Gamble of $efx, or humble ship builder Georgie of $drys?'
p280
S'Bullish'
p281
tp282
a(S'$BTC.X $JPM $ETH.X  $LTC.X $NEO.X  #Bitcoin #cryptocurrency www.cryptorockstars.com'
p283
S'Bullish'
p284
tp285
a(S'$BTC.X rest of our life using our tax dollars to bail out shady companies like $JPM or adopt a fair system where we cut 3rd parties out??'
p286
S'Bullish'
p287
tp288
a(S'$SPY parabolic move up in banks very possible within the nest 2 weeks IMO,,, $XLF $GS $JPM $BAC $CS $UBS'
p289
S'Bullish'
p290
tp291
a(S'Trimmed back watch list SVXY $AMTD $MS $JPM $BAC ..... .'
p292
S'Bullish'
p293
tp294
a(S'$BTC.X when $JPM has dimon talking smack to bring this lower then u see them load the boat on the dip, you know its going higher. Accumulate'
p295
S'Bullish'
p296
tp297
a(S'LOL $JPM and Jamie Dimon&#39;s daughter have been buying $BTC.X. I bet they bought $ETH.X too. http://www.trustnodes.com/2017/09/16/jp-morgan-buys-bitcoin-price-rises-20'
p298
S'Bullish'
p299
tp300
a(S'$MCD Wake me up when it&#39;s 173 like it ought to be.'
p301
S'Bullish'
p302
tp303
a(S'$BWLD OCT20 105C #trendreversal #breakout #Bullish move aside $PLAY $CMG $BOBE $MCD $EAT $ARCO $TACO $DRI '
p304
S'Bullish'
p305
tp306
a(S'$MCD target price 172.30$\n\nForecast from Dominant investors app'
p307
S'Bullish'
p308
tp309
a(S'$MCD Back to 160 today.'
p310
S'Bullish'
p311
tp312
a(S'$MCD Holding update in at $130 up $27/share 21% Return Holding Long Also own shares LT from $65'
p313
S'Bullish'
p314
tp315
a(S'$MCD closing greennn??'
p316
S'Bullish'
p317
tp318
a(S'$MCD nice comeback!'
p319
S'Bullish'
p320
tp321
a(S'$DCTH $MRK \nJuly Meeting with Buyout Rumor'
p322
S'Bullish'
p323
tp324
a(S'$ATOS  I would only believe it. when $ATOS or $mrk actually have an official press release.'
p325
S'Bullish'
p326
tp327
a(S'$MRK Anybody knows about release data on sept/22 about FDA'
p328
S'Bullish'
p329
tp330
a(S'$MRK'
p331
S'Bullish'
p332
tp333
a(S'$ATOS Rumors if $mrk get a hold of ATOS endoxifen cancer treatment. This will go up. that&#39;s a  big IF. I will search for that info.'
p334
S'Bullish'
p335
tp336
a(S'$MRTX $AUPH $MRK $JNJ all BIO should be buying THIS! 150% in a day, 300% in 2 days, 1000% in 3 dayss!!!'
p337
S'Bullish'
p338
tp339
a(S'@BLACKCLOUD you mean like BuyOut? Yes, $MRK will buy this GOLD!'
p340
S'Bullish'
p341
tp342
a(S'$ORCL see buy vs sell orders most undervalued cloud company among $crm $MSFT $AMZN'
p343
S'Bullish'
p344
tp345
a(S'$MSFT Power BI is a game changer &amp; will be on every corporate CPU that has Excel within one yr at $99 per script.'
p346
S'Bullish'
p347
tp348
a(S'$DLTH $NKE $ZUMZ $UA $SPY https://seekingalpha.com/article/4104950-duluth-trading-downtrend-done'
p349
S'Bullish'
p350
tp351
a(S'Stocking up on $NKE while it&#39;s still a bargain. Holding 6800 shares through earnings.'
p352
S'Bullish'
p353
tp354
a(S'@mstowe6 $PFE About 1 man in 39 will die of prostate cancer. I honestly think we crack $38 in less than 2 weeks.'
p355
S'Bullish'
p356
tp357
a(S'exiting $GLD $KOL $PICK $NOMD ; entering $GPRO $FEYE $HALO $PFE $ITA $UCO to join $ASHR $BABA $CRM $KGC $MVIS $MYGN $SERV $SPR $XBI $YNDX'
p358
S'Bullish'
p359
tp360
a(S'$PFE damn screwed up big time  I saw this move coming'
p361
S'Bullish'
p362
tp363
a(S'$PFE $37 next week if market cooperates'
p364
S'Bullish'
p365
tp366
a(S'@CuddleBunny @LittleA @TickrTalk A buyout had been discussed in the past but nothing recent. 2 that I can think of were $JNJ and $PFE'
p367
S'Bullish'
p368
tp369
a(S'$PFE http://www.nasdaq.com/article/pfizer-xtandi-succeeds-in-early-stage-prostate-cancer-study-cm846359'
p370
S'Bullish'
p371
tp372
a(S'Jeff Update from sickle cell SCD Therapeutics Conference $SGMO $BIVV $GBT $NVS $PFE https://twitter.com/_B_I_O_T_E_C_H_/status/908618713963909120'
p373
S'Bullish'
p374
tp375
a(S'$PG target price 108.40$\n\nForecast from Dominant investors app'
p376
S'Bullish'
p377
tp378
a(S'$BA $LMT $RTN $HON $MMM $UTX Every time N. Korea do some shooting or Bomb test this stocks moving up Higher. Is gonna get more higher.'
p379
S'Bullish'
p380
tp381
a(S'$UTX looking for $115+ today!'
p382
S'Bullish'
p383
tp384
a(S'$UTX United Tech perked up today. I&#39;m a buyer down here with or without $COL acquisition but believe will pass'
p385
S'Bullish'
p386
tp387
a(S'$UTX UTX - Reversal and long position initiated. 14.09.17\ndBFI just signaled a reversal and had a confirmation\nLong @ 1'
p388
S'Bullish'
p389
tp390
a(S'Trade signal, 83% chance,$UNH will close above $198.18 support by end of session. Bullish. http://tradespoon.com/s.php?t=$UNH'
p391
S'Bullish'
p392
tp393
a(S'$UNH flip flopping not sure what&#39;s next. Big move though.'
p394
S'Bullish'
p395
tp396
a(S'$UNH I&#39;m flip flopping ?  Thus'
p397
S'Bullish'
p398
tp399
a(S'$UNH'
p400
S'Bullish'
p401
tp402
a(S'$UNH go green!!'
p403
S'Bullish'
p404
tp405
a(S'When excessive optimism far outweighs normal rational expectations, crashes occur  and this will be the case with $UNH $CI very soon.'
p406
S'Bullish'
p407
tp408
a(S'$UNH to flat at $200 until Friday then resume pushing up to $220 by Sept 22 expiration.'
p409
S'Bullish'
p410
tp411
a(S'Health care should continue uptrend with Trump failing. $CI. Our lovely $UNH should hit $250 by December.'
p412
S'Bullish'
p413
tp414
a(S'Based on stats,69% chance,$VZ will close above $47.14 support by end of session. Bullish. http://tradespoon.com/s.php?t=$VZ'
p415
S'Bullish'
p416
tp417
a(S'$VZ 5 years, over $200 IMO #Fiber'
p418
S'Bullish'
p419
tp420
a(S'$VZ is in EMA33 Breakout winning 62.32% in the past. https://goo.gl/MZMgA2'
p421
S'Bullish'
p422
tp423
a(S'$SSNLF gonna sell &amp; take some REAL market share from Apple. $AAPL. Note 8 is better, will depend on deals $T $VZ $S\n\nhttp://quad7capital.com/2017/09/15/move-apple-iphone-8-samsungs-galaxy-note-8/'
p424
S'Bullish'
p425
tp426
a(S'$VZ holding my entire position until we breakout to 54+. Until then I will collect my divs!'
p427
S'Bullish'
p428
tp429
a(S'$VZ'
p430
S'Bullish'
p431
tp432
a(S'$TMUS $T $VZ $AAPL Watch 3 will work without an iPhone nearby, but it will add $10/month to bills from wireless carriers'
p433
S'Bullish'
p434
tp435
a(S'$V This is a Q-4 super Play, with or without a Fed rate increase.'
p436
S'Bullish'
p437
tp438
a(S'Trade alert, 73% chance,$V will close above $105.3 support by end of session. Bullish. http://tradespoon.com/s.php?t=$V'
p439
S'Bullish'
p440
tp441
a(S'$V Increased position here. Solid support at 105.19-20'
p442
S'Bullish'
p443
tp444
a(S'$V In now at 105.19!'
p445
S'Bullish'
p446
tp447
a(S'$V Unit cost is 100.87'
p448
S'Bullish'
p449
tp450
a(S'$GBTC Floyd Mayweather post today!!$btc.x $ETH.X $LTC.X $JPM $v  #bitcoin $XLF'
p451
S'Bullish'
p452
tp453
a(S'$V Under 106 is a solid buy IMO $MA $AXP $PYPL $SQ'
p454
S'Bullish'
p455
tp456
a(S'$WMT https://www.facebook.com/leann.hughes.315/posts/1643111329040490'
p457
S'Bullish'
p458
tp459
a(S'$WMT Amazon we are on your back watch out.. King of retail also building new HQ.'
p460
S'Bullish'
p461
tp462
a(S'Target Surrenders To Amazon: Rest Of Retail To Follow https://seekingalpha.com/article/4107277?source=ansh $TGT, $KR, $AMZN, $WMT'
p463
S'Bullish'
p464
tp465
a(S'$WMT we&#39;ve been pinned to the 80 range awhile... but I still think we see mid 90s next year mid 18.'
p466
S'Bullish'
p467
tp468
a(S'$KR Kroger looks well positioned in a challenging grocery industry. Get an analysis here. https://seekingalpha.com/article/4106383-kroger-starting-look-appetizing-12_9x-ttm-p-e $WMT $WFM $AMZN $SWY $SFM'
p469
S'Bullish'
p470
tp471
a(S'Jeff Update from sickle cell SCD Therapeutics Conference $SGMO $BIVV $GBT $NVS $PFE https://twitter.com/_B_I_O_T_E_C_H_/status/908618713963909120'
p472
S'Bullish'
p473
tp474
a(S'$NVS target price 95.00$\n\nForecast from Dominant investors app'
p475
S'Bullish'
p476
tp477
a(S'$NVS'
p478
S'Bullish'
p479
tp480
a(S'$NVS all this wonderful news and the stock is crawling.  Give it time cures will be worth money.'
p481
S'Bullish'
p482
tp483
a(S'$NVS waiting for the breakout to make 20%. Watch the $86 line'
p484
S'Bullish'
p485
tp486
a(S'$NVS'
p487
S'Bullish'
p488
tp489
a(S'$GILD meeting uniquely head of oncology Alessandro Rivera#geneediting $SGMO $KITE $JUNO $GSK $NVS $BLUE'
p490
S'Bullish'
p491
tp492
a(S'Heading to $100 $OIL ? https://www.linkedin.com/pulse/100-per-barrel-10-reasons-make-you-think-its-closer-than-pertini $USO $XOM $SPY $DIA $IWM $APA $CVX $COP $SLB $HAL $PBR $TSLA $TS $GM $F $XLE $OIH $CEO $PTR'
p493
S'Bullish'
p494
tp495
a(S'$PTR: The earnings of PetroChina Company Limited (ADR) are now forecast to grow. (https://stockflare.com/stock/PTR)'
p496
S'Bullish'
p497
tp498
a(S'$PTR: PetroChina Company Limited (ADR) is cheaper today at 39x earnings than it was a week ago at 46x earnings. (https://stockflare.com/stock/PTR)'
p499
S'Bullish'
p500
tp501
a(S'$PTR: The forecast EPS for PetroChina Company Limited (ADR) has increased to $1.65 from $1.34 in the last week. (https://stockflare.com/stock/PTR)'
p502
S'Bullish'
p503
tp504
a(S'$PTR: PetroChina Company Limited (ADR) has gained a star, now a 4 star stock. (https://stockflare.com/stock/PTR)'
p505
S'Bullish'
p506
tp507
a(S'$WFC Consolidation is over'
p508
S'Bullish'
p509
tp510
a(S'@TradinTemplar  Yawn. Same arguments for $TGT, $WFC, $ANTM.'
p511
S'Bullish'
p512
tp513
a(S'@agamemnus @MaxPowerDoe this is overplayed, especially considering $HAS has 11% of business through ToysRUs and $MAT has deal with $BABA'
p514
S'Bullish'
p515
tp516
a(S'$BABA next week $178---&gt;$180.  Super September promotion launches Wednesday. $AABA'
p517
S'Bullish'
p518
tp519
a(S'$SPHS $ptn $epix $tsla $baba anyone here at the Hyatt regency Orlando? Tim Sykes?'
p520
S'Bullish'
p521
tp522
a(S'$TWTR Ive noticed tiny restructures of the explore tab and have to say twitter is doing a nice job with the layout making it easier/better'
p523
S'Bullish'
p524
tp525
a(S'mother! In Theaters NOW. 5 STAR reviews! $CBS $FOXA $TWX $FB $TWTR $SNAP $SNE $DIS https://youtu.be/XpICoc65uh0'
p526
S'Bullish'
p527
tp528
a(S'$TWTR What happens when you wait too long &amp; miss the close. You try to Buy 31,000 shares AH'
p529
S'Bullish'
p530
tp531
a(S'$TWTR So Max-Pain was blown but how are those $15 Put holders feeling?'
p532
S'Bullish'
p533
tp534
a(S'$FB is Facebook doing the stock split?  I&#39;m really hoping it does. I think that could be a catalyst that would take us to $200 pre split.'
p535
S'Bullish'
p536
tp537
a(S'$FB split, er, and monetize messages app, and going to China. each one of these could drive fb share to 200!'
p538
S'Bullish'
p539
tp540
a(S'@Momentum_Trader_  and if i were to throw $fb in the equation? Pick two ? I&#39;m bullish on all'
p541
S'Bullish'
p542
tp543
a(S'$FB So many untapped opportunities for FB to monetize its properties! Owning FB today like owning GOOG IN 2007!'
p544
S'Bullish'
p545
tp546
a(S'$FB Q3 will sqUAsh the fake-news and Russia BS. Those are totally irrelevant compared the money making powers of FB! EU taxes be damned!'
p547
S'Bullish'
p548
tp549
a(S'$FB We&#39;re in the calm before the PR storm for FB. 9/26 will kick off the Q3 ER barrage. \nI then expect PT hikes and reiterations galore. '
p550
S'Bullish'
p551
tp552
a(S'$FB 07 more trading sessions until Class-C 3:1 split decision.I look forward to owning 3X my shares at $57/ea. I&#39;ll swap the C&#39;s for A&#39;s'
p553
S'Bullish'
p554
tp555
a(S'$FB Great piece on why the anti-big tech company crusade is doomed! http://markets.businessinsider.com/news/stocks/anti-big-tech-push-is-doomed-2017-9-1002376233 So many other companies so much worse than tech!'
p556
S'Bullish'
p557
tp558
a(S'$FB Go long. Bullish'
p559
S'Bullish'
p560
tp561
a(S'$TCEHY $GOOG $GOOGL Tencent vs google in stock return'
p562
S'Bullish'
p563
tp564
a(S'BINGO!!!!! $SPY $DIA $QQQ $IWM $IYT $UVXY $XIV $FB $AMZN $AAPL $NFLX $GOOG'
p565
S'Bullish'
p566
tp567
a(S'$DCTH I&#39;m not greedy...just want same price per share as $GOOG. I mean, it&#39;s  chemo with minimal side effect. Must be worth at least that'
p568
S'Bullish'
p569
tp570
a(S'http://quad7capital.com/2017/09/15/google-might-buy-lyft/\n\nNo BS, the tea leaves and signs point to $GOOG, $GOOGL buying $LYFT. They own chunk of $UBER. Check it out'
p571
S'Bullish'
p572
tp573
a(S'$AAPL One billion images. Difference between AAPL and Samsung? AAPL doesn&#39;t release a half-assed product.'
p574
S'Bullish'
p575
tp576
a(S'@_Pony_ $AAPL makes a phone you can boil in water for 30 minutes. Who does that? There&#39;s a reason Apple has sold over 1 Billion iPhone&#39;s'
p577
S'Bullish'
p578
tp579
a(S'@_Pony_ Come on Pony you still ragging on $AAPL. Yes, if you drop the phone it may break. If you plop down a $1000 4 a phone buy a cover.'
p580
S'Bullish'
p581
tp582
a(S'$RXDX our members were alerted at 9:39am for this trade. Don&#39;t miss out, join today!  $SNAP $TSLA $F $YHOO $UAA'
p583
S'Bullish'
p584
tp585
a(S'$TLM $BP $SHLX Great read - Once in a Lifetime Opportunity to Profit in Commodity Equities: https://investoralmanac.com/2017/09/16/once-in-an-investment-lifetime-opportunity-to-profit-in-commodities/'
p586
S'Bullish'
p587
tp588
a(S'It is about time!  Only been holding since 2011!  LOL!  Poor gains, but the dividends have been delicious! $BP'
p589
S'Bullish'
p590
tp591
a(S'$OAS $BP $CVX Good summary of Baron Energy and Resources Letter- long thesis for energy names: https://investoralmanac.com/2017/07/31/baron-energy-and-resources-2q17-contradictions-plaguing-the-industry-peak-demand-really/'
p592
S'Bullish'
p593
tp594
a(S'$CL_F $USO $OIL $UWT $DWT $XLE $MRO $BP $VLO $HES Who was it that said oil wasn&#39;t bullish last week?'
p595
S'Bullish'
p596
tp597
a(S'$BP Beautiful'
p598
S'Bullish'
p599
tp600
a(S'$BP as a BP shareholder are we going to get a little taste of the spin off'
p601
S'Bullish'
p602
tp603
a(S'$PEP is in Stochastic Oversold  winning 61.54% in the past. https://goo.gl/HtppWT'
p604
S'Bullish'
p605
tp606
a(S'Trade alert, 76% chance,$PEP will close above $113.59 support by end of session. Bullish. http://tradespoon.com/s.php?t=$PEP'
p607
S'Bullish'
p608
tp609
a(S'Based on stats,76% chance,$PEP will close above $114.45 support by end of session. Bullish. http://tradespoon.com/s.php?t=$PEP'
p610
S'Bullish'
p611
tp612
a(S'$AAPL iPhone x just another piss poor design by Apple engineers and marketed by Phil Schiller'
p613
S'Bearish'
p614
tp615
a(S'$AAPL lets face it Apple is taking away all the features ppl love just like the Democrats take everyone&#39;s guns'
p616
S'Bearish'
p617
tp618
a(S'$NVDA Price to cash flow is 55.3.  $AMZN is 28.3, $AAPL is 13.2, $INTC is 8.0:   http://financials.morningstar.com/valuation/price-ratio.html?t=NVDA'
p619
S'Bearish'
p620
tp621
a(S'$AAPL saying their phone is worth 1000 or telling us krap is worth 1000 which is it??? What will it cost for a phone that does not break?'
p622
S'Bearish'
p623
tp624
a(S'$AAPL iPhone x is missing 2 important pieces of hardware..headphn jack &amp; fingerprint sensor..nt every1 will b happy scanning faces...'
p625
S'Bearish'
p626
tp627
a(S'$AAPL if you know your engineers designed a phone that breaks then you should provide the protection free of charge especially for 1000 USD'
p628
S'Bearish'
p629
tp630
a(S'$AAPL for 1000 USD iPhone you should expect it to be bullet proof and not break when dropped...'
p631
S'Bearish'
p632
tp633
a(S'$AAPL a dare for Timmy drop the iPhone to concrete from 2 meters 10 times per side and show the result...you know the engineers design krap'
p634
S'Bearish'
p635
tp636
a(S'$AAPL as u notice not once at these iPhone events do they demonstrate phones being dropped because they know it&#39;s krap and will fail'
p637
S'Bearish'
p638
tp639
a(S'$AAPL Phil Schiller only has to show to up to work one day out of the year and he really messed it up this time with iPhone X'
p640
S'Bearish'
p641
tp642
a(S'$AAPL display engineer really messed up on the iPhone x display the swiping cannot be done holding phone in one hand which really suxs'
p643
S'Bearish'
p644
tp645
a(S'$AAPL iPhone x another disaster product by no other than Phil Schiller congrats you can put another piece of krap on your resume loser'
p646
S'Bearish'
p647
tp648
a(S'$AAPL buy quickcharge, glass back protector, wirelesscharge, applecare... Sheeple'
p649
S'Bearish'
p650
tp651
a(S'$AXP worst place to put your money in.'
p652
S'Bearish'
p653
tp654
a(S'$T betting on the down trend PT $35'
p655
S'Bearish'
p656
tp657
a(S'$BA Stocks are like trees.....never touch the sky &amp; fall....&quot; Buffet quote....&quot;'
p658
S'Bearish'
p659
tp660
a(S'$BA Top Dow Stock Boeing Nears Buy Point As Widebody Demand Picks Up ??? YA RIGHT at 8 years top high??'
p661
S'Bearish'
p662
tp663
a(S'@stockbookie what do you think of this POS? $BA'
p664
S'Bearish'
p665
tp666
a(S'$CVX is in Shooting Star winning 100.00% in the past. https://goo.gl/dKaMQi'
p667
S'Bearish'
p668
tp669
a(S'$DIS No more ESPN for me, used to tune in for sports not its political view. Might as well merge with CNN. Will short the next pop here.'
p670
S'Bearish'
p671
tp672
a(S'$GE $MRK $KO $PFE $DD $AMZN $FB $GOOG earnings are overstated\n\nhttp://www.businessinsider.com/adjusted-earnings-artificially-inflating-stock-prices-2017-9'
p673
S'Bearish'
p674
tp675
a(S'$GE chart looks like crap'
p676
S'Bearish'
p677
tp678
a(S'$GE PermaBulls are watching paint dry while they LOSE money for 15 years.. LT investors sorry never been the same once Welch left.'
p679
S'Bearish'
p680
tp681
a(S'$GS Goldman needs to retest 200!'
p682
S'Bearish'
p683
tp684
a(S'$IBM going to 90. guaranteed'
p685
S'Bearish'
p686
tp687
a(S'$JPM If Jamie Dimon Hates It So Much, Then Why Is JPMorgan Buying Bitcoin In Europe? Investigate This Crook'
p688
S'Bearish'
p689
tp690
a(S'$JPM If Jamie Dimon Hates It So Much, Why Is #JPMorgan Buying #Bitcoin In Europe?   #stock  UP  $MGTI http://www.zerohedge.com/news/2017-09-16/if-jamie-dimon-hates-it-so-much-then-why-jpmorgan-buying-bitcoin-europe'
p691
S'Bearish'
p692
tp693
a(S'$JPM bashing bitcoin, terrible idea'
p694
S'Bearish'
p695
tp696
a(S'$MCD is a bad investment. Too expensive. Many companies out there are cheaper and better.'
p697
S'Bearish'
p698
tp699
a(S'$JUNO buyout to be announced today 4:01 PM EST mark it. Rumors has it $MCD or $WMT buying it.'
p700
S'Bearish'
p701
tp702
a(S'$MCD because of hurricanes must go below150'
p703
S'Bearish'
p704
tp705
a(S'$ORCL You guys are really betting on the wrong horse if this is your cloud play. $AMZN $MSFT and even $GOOG have them incredibly outclassed'
p706
S'Bearish'
p707
tp708
a(S'$PFE Too heated. Pullback needed further.'
p709
S'Bearish'
p710
tp711
a(S'$TRV eyeing the Oct 20 120 puts at 2.50.  No vol on these though...probably will avoid'
p712
S'Bearish'
p713
tp714
a(S'$TRV This is an f&#39;ing joke.'
p715
S'Bearish'
p716
tp717
a(S'$TRV its going to 90 by next week.'
p718
S'Bearish'
p719
tp720
a(S'$TRV Another downgrade and it shoots up. WS is hilarious with the fraud.'
p721
S'Bearish'
p722
tp723
a(S'$WMT 2 Reason you should be bearish on wmt. 1) Bearish Harami candle Pattern 2) RSI in over bought condition at 73'
p724
S'Bearish'
p725
tp726
a(S'$JUNO buyout to be announced today 4:01 PM EST mark it. Rumors has it $MCD or $WMT buying it.'
p727
S'Bearish'
p728
tp729
a(S'75% of owners in Texas do not have flood insurance for their cars.  Lots cannot afford replacement.  $GM $F $FCAU $TM $HMC $TTM'
p730
S'Bearish'
p731
tp732
a(S'$PTR: The earnings of PetroChina Company Limited (ADR) are now forecast to decline. (https://stockflare.com/stock/PTR)'
p733
S'Bearish'
p734
tp735
a(S'$PTR: PetroChina Company Limited (ADR) has lost a star, now a 2 star stock. (https://stockflare.com/stock/PTR)'
p736
S'Bearish'
p737
tp738
a(S'$PTR: PetroChina Company Limited (ADR) has fallen to a 2 star rating. Here is a list of its peers that are 4+ star stocks: PBR, EC. (https://stockflare.com/stock/PTR)'
p739
S'Bearish'
p740
tp741
a(S'@lakers24 @virajarora $wfc have u seen how their business has been affected?'
p742
S'Bearish'
p743
tp744
a(S'@virajarora $efx; they have reputational damage ala $cmg, $wfc; a new CEO doesn&#39;t change that'
p745
S'Bearish'
p746
tp747
a(S'$EFX No comparison to $WFC. Only 2mil of $WFC&#39;s 70mil customers were affected. Here 143mil people screwed for life with fear of ID-theft.'
p748
S'Bearish'
p749
tp750
a(S'$EFX  Novice investors have an opportunity to see what happens when you try and catch a falling knife. $APPL $GOOG  $TSLA  $BAC $MSFT  $WFC'
p751
S'Bearish'
p752
tp753
a(S'@thefrankster  no comparison, only a 2mil of $WFC 70mil customers were affected. Here 143mil ppl screwed for life.'
p754
S'Bearish'
p755
tp756
a(S'$BABA Ayy lmao'
p757
S'Bearish'
p758
tp759
a(S'$FB $AMZN \nThe Amazon Monopoly Problem: Prime Time For Antitrust Action Vs. E-Commerce Giant, Facebook, $GOOG'
p760
S'Bearish'
p761
tp762
a(S'$FB $AAPL $NVDA business built on natural dopamine'
p763
S'Bearish'
p764
tp765
a(S'$GOOG not yet'
p766
S'Bearish'
p767
tp768
a(S'$FB $AMZN \nThe Amazon Monopoly Problem: Prime Time For Antitrust Action Vs. E-Commerce Giant, Facebook, $GOOG'
p769
S'Bearish'
p770
tp771
a(S'$BABA $NFLX $FB $GOOG $GOOG and all the over hyped ones...'
p772
S'Bearish'
p773
tp774
a(S'$AAPL iPhone x just another piss poor design by Apple engineers and marketed by Phil Schiller'
p775
S'Bearish'
p776
tp777
a(S'$AAPL lets face it Apple is taking away all the features ppl love just like the Democrats take everyone&#39;s guns'
p778
S'Bearish'
p779
tp780
a(S'$NVDA Price to cash flow is 55.3.  $AMZN is 28.3, $AAPL is 13.2, $INTC is 8.0:   http://financials.morningstar.com/valuation/price-ratio.html?t=NVDA'
p781
S'Bearish'
p782
tp783
a(S'$AAPL saying their phone is worth 1000 or telling us krap is worth 1000 which is it??? What will it cost for a phone that does not break?'
p784
S'Bearish'
p785
tp786
a(S'$AAPL iPhone x is missing 2 important pieces of hardware..headphn jack &amp; fingerprint sensor..nt every1 will b happy scanning faces...'
p787
S'Bearish'
p788
tp789
a(S'$AAPL if you know your engineers designed a phone that breaks then you should provide the protection free of charge especially for 1000 USD'
p790
S'Bearish'
p791
tp792
a(S'$AAPL for 1000 USD iPhone you should expect it to be bullet proof and not break when dropped...'
p793
S'Bearish'
p794
tp795
a(S'$AAPL a dare for Timmy drop the iPhone to concrete from 2 meters 10 times per side and show the result...you know the engineers design krap'
p796
S'Bearish'
p797
tp798
a(S'$AAPL as u notice not once at these iPhone events do they demonstrate phones being dropped because they know it&#39;s krap and will fail'
p799
S'Bearish'
p800
tp801
a(S'$AAPL Phil Schiller only has to show to up to work one day out of the year and he really messed it up this time with iPhone X'
p802
S'Bearish'
p803
tp804
a(S'$AAPL display engineer really messed up on the iPhone x display the swiping cannot be done holding phone in one hand which really suxs'
p805
S'Bearish'
p806
tp807
a(S'$AAPL iPhone x another disaster product by no other than Phil Schiller congrats you can put another piece of krap on your resume loser'
p808
S'Bearish'
p809
tp810
a(S'$AAPL buy quickcharge, glass back protector, wirelesscharge, applecare... Sheeple'
p811
S'Bearish'
p812
tp813
a(S'$YHOO surprised people still use yahoo anymore. I blocked it from the cpu, to many racist comments visible don&#39;t want my kids reading yahoo'
p814
S'Bearish'
p815
tp816
a.