(lp0
(S'$AAPL One billion images. Difference between AAPL and Samsung? AAPL doesn&#39;t release a half-assed product.'
p1
S'Bullish'
p2
tp3
a(S'@_Pony_ $AAPL makes a phone you can boil in water for 30 minutes. Who does that? There&#39;s a reason Apple has sold over 1 Billion iPhone&#39;s'
p4
S'Bullish'
p5
tp6
a(S'@_Pony_ Come on Pony you still ragging on $AAPL. Yes, if you drop the phone it may break. If you plop down a $1000 4 a phone buy a cover.'
p7
S'Bullish'
p8
tp9
a(S'@Thankfulness $amzn is doing what $aapl would have done had Steve Jobs still been alive. $amzn rocks!'
p10
S'Bullish'
p11
tp12
a(S'@NateTheGr8 that&#39;s too rational for the irrational $AAPL fanboys.'
p13
S'Bullish'
p14
tp15
a(S'The thing that magisto doesn&#39;t get or that most Bears don&#39;t get. No one has ever bought $AAPL iphone becuase it&#39;s better, they just love it'
p16
S'Bullish'
p17
tp18
a(S'$AAPL $200 before eoy '
p19
S'Bullish'
p20
tp21
a(S'$BA $LMT $RTN $HON $MMM $UTX Every time N. Korea do some shooting or Bomb test this stocks moving up Higher. Is gonna get more higher.'
p22
S'Bullish'
p23
tp24
a(S'$MMM Y U NO ALERT. @1simpletrader'
p25
S'Bullish'
p26
tp27
a(S'$MMM guessing it backs off $213 on first approach, and will have to wait Monday for confirmation although 1minute chart looks amazing'
p28
S'Bullish'
p29
tp30
a(S'watching $CAT over 121.50, scalp only, also watching $MMM over 213!'
p31
S'Bullish'
p32
tp33
a(S'$MMM setting up nicely for a break-out play'
p34
S'Bullish'
p35
tp36
a(S'$MMM target price 227.60$\n\nForecast from Dominant investors app'
p37
S'Bullish'
p38
tp39
a(S'$MMM one of the best charts in the market last couple of weeks. nothing fancy just UP'
p40
S'Bullish'
p41
tp42
a(S'$GE $BA $MMM $HON $UNP $UTX $UPS $LMT $CAT $GD top holdings of $XLI'
p43
S'Bullish'
p44
tp45
a(S'Sept 18 Watchlist: $DXTR $CRMD $HMNY $BW $RNVA $SKLN $LODE $HEB $MMM #TradeSmart good luck bulls!'
p46
S'Bullish'
p47
tp48
a(S'$BA $LMT $RTN $HON $MMM $UTX Every time N. Korea do some shooting or Bomb test this stocks moving up Higher. Is gonna get more higher.'
p49
S'Bullish'
p50
tp51
a(S'$MMM Y U NO ALERT. @1simpletrader'
p52
S'Bullish'
p53
tp54
a(S'@MariaC82 that&#39;s very sweet of you! will do soon, just need to get books &amp; acct in order first. r u following $AXP?'
p55
S'Bullish'
p56
tp57
a(S'$AXP Seems retails data today propelled the card companies. Strong retail and consumer spend is positive for this stock.'
p58
S'Bullish'
p59
tp60
a(S'$V Under 106 is a solid buy IMO $MA $AXP $PYPL $SQ'
p61
S'Bullish'
p62
tp63
a(S'$AXP $88'
p64
S'Bullish'
p65
tp66
a(S'$AXP target price 98.90$\n\nForecast from Dominant investors app'
p67
S'Bullish'
p68
tp69
a(S'$V $MA $AXP $DFS $SYF $GE $SC $EFX $EXPGF $TRU Consumer Debt And Credit Companies - The Eye Of The Storm https://brandpower.whotrades.com/blog/43533967007'
p70
S'Bullish'
p71
tp72
a(S'$AXP we going to $90'
p73
S'Bullish'
p74
tp75
a(S'$AXP Seems retails data today propelled the card companies. Strong retail and consumer spend is positive for this stock.'
p76
S'Bullish'
p77
tp78
a(S'$T    AT&amp;T My Opinionated Monday trading forecast.                http://bit.ly/2yehvTK'
p79
S'Bullish'
p80
tp81
a(S'$T those 1/2018 34 puts sold a week ago looks damn good now. Free $$.'
p82
S'Bullish'
p83
tp84
a(S'$T ready to unleash the power next week !! Let&#39;s not fail !!'
p85
S'Bullish'
p86
tp87
a(S'$T I got my mind on the market, and the market on my mind. Profitable blessings to all. Enjoy the weekend @DayTradeWarrior'
p88
S'Bullish'
p89
tp90
a(S'$T Knew to buy at 35.60... just had strong feeling and glad I did '
p91
S'Bullish'
p92
tp93
a(S'$T a staggering reversal today and an ice cream sandwich'
p94
S'Bullish'
p95
tp96
a(S'$T In the words of the most famous stock trader 2evr live. &quot;From today&#39;s price action somebody knows something!&quot; #t  #daytrading'
p97
S'Bullish'
p98
tp99
a(S'$T nice AH buys!'
p100
S'Bullish'
p101
tp102
a(S'$T closed above 50 ma and resistance with nice volume. 38 should be up next'
p103
S'Bullish'
p104
tp105
a(S'$T $S still accumulating both.'
p106
S'Bullish'
p107
tp108
a(S'$T'
p109
S'Bullish'
p110
tp111
a(S'$T A close above .40 would be strong. .40 prior big trade'
p112
S'Bullish'
p113
tp114
a(S'$T Adding'
p115
S'Bullish'
p116
tp117
a(S'$T Another Big Block trade 125K @$37.18'
p118
S'Bullish'
p119
tp120
a(S'$T Same as Fridays action.  Popped.  Faded till about 2pm then rallied hard.  I always find that predictability odd.  Oh well powerup'
p121
S'Bullish'
p122
tp123
a(S'$T waiting to see if this can get 38+ with iPhone release and ex-div upcoming'
p124
S'Bullish'
p125
tp126
a(S'$BA Stocks are like trees.....never touch the sky &amp; fall....&quot; Buffet quote....&quot;'
p127
S'Bullish'
p128
tp129
a(S'$BA Top Dow Stock Boeing Nears Buy Point As Widebody Demand Picks Up ??? YA RIGHT at 8 years top high??'
p130
S'Bullish'
p131
tp132
a(S'@stockbookie what do you think of this POS? $BA'
p133
S'Bullish'
p134
tp135
a(S'$BA still got some more room... would love to see it touch +$251\n(def got 1 more green day in a row)+'
p136
S'Bullish'
p137
tp138
a(S'$BA We will FLY through the 250 resistance..  just a few clouds in the sky...For those new here the fundamentals are  excellent'
p139
S'Bullish'
p140
tp141
a(S'$BA $LMT $RTN $HON $MMM $UTX Every time N. Korea do some shooting or Bomb test this stocks moving up Higher. Is gonna get more higher.'
p142
S'Bullish'
p143
tp144
a(S'$BA Just break out today... it should move up Higher. Way I see it another 7-8% upside.'
p145
S'Bullish'
p146
tp147
a(S'$BA is in MACD Golden Cross winning 75.00% in the past. https://goo.gl/mfvin6'
p148
S'Bullish'
p149
tp150
a(S'@peaches1 @gusmccrae @perfectvision Mostly blue chip. Some are on my watch list. All up 100% in 1 year some like $BA 200%  $DVAX + 400%'
p151
S'Bullish'
p152
tp153
a(S'$KTOS &quot;Team ST&quot; !!! Let&#39;s Get Defense Money. \nSenate passes $700 billion defense policy bill\n\nhttps://www.cnbc.com/2017/09/18/senate-passes-700-billion-defense-policy-bill-backing-trump-call-for-steep-increase-in-military-spending.html $LMT $RTN $BA $NOC'
p154
S'Bullish'
p155
tp156
a(S'Love watching $BA clean house on its heavily gov-subsidized competitors. Cant wait to see trudeau&#39;s face when bombardier loses the lawsuit!'
p157
S'Bullish'
p158
tp159
a(S'$BA \n\nFUN DAY\nMAYBE A SPLIT? Or extra dividend money\n\nFLY ME TO THE MOON...LET ME PLAY AMONG THE STARS ... $BA '
p160
S'Bullish'
p161
tp162
a(S'$BA $BABA $NVDA $BZUN $MELI $GD $SHOP \n\nBeautiful close'
p163
S'Bullish'
p164
tp165
a(S'@ForChristSakes  $BA I stay long untill the trend changes and use a stop..Loss to lock in profit...Not day trading this one.'
p166
S'Bullish'
p167
tp168
a(S'$BA Now that&#39;s what you call BULL ish..Look at the runnn.. since 235s few weeks ago after consolidating a month..!! I Called it at 198'
p169
S'Bullish'
p170
tp171
a(S'$CAT http://www.barrons.com/articles/wall-streets-real-earnings-surprises-1505533909'
p172
S'Bullish'
p173
tp174
a(S'$CAT calls BOOM - take cost off now.. almost +100% with a week to go'
p175
S'Bullish'
p176
tp177
a(S'$CAT +30% with a week to go'
p178
S'Bullish'
p179
tp180
a(S'BTO $CAT sept 122c .46'
p181
S'Bullish'
p182
tp183
a(S'$SPY  Will check back after Europe closes $SVXY $MRVL $NVDA $FB $JPM $CELG $ALZN $VLO $CAT $RACE $LOW $AAPL ....'
p184
S'Bullish'
p185
tp186
a(S'watching $CAT over 121.50, scalp only, also watching $MMM over 213!'
p187
S'Bullish'
p188
tp189
a(S'$BABA $TSLA $NVDA $AAOI $CAT GREAT DAY!'
p190
S'Bullish'
p191
tp192
a(S'$CAT'
p193
S'Bullish'
p194
tp195
a(S'$CAT green today w/ 5  signals like three inside up. Sup=117.97. Wanna enter? https://goo.gl/CMz3A5'
p196
S'Bullish'
p197
tp198
a(S'$CAT lots of upgrades coming'
p199
S'Bullish'
p200
tp201
a(S'$XLE $OIH $USO $XOP If your watching energy note $CVX .....'
p202
S'Bullish'
p203
tp204
a(S'$HAL $WLL $WFT $CVX $XOM Goldman-Sachs-Oil-Majors-See-Upside-At-50-Oil. M&amp;A time??\nhttp://oilprice.com/Energy/Oil-Prices/Goldman-Sachs-Oil-Majors-See-Upside-At-50-Oil.html'
p205
S'Bullish'
p206
tp207
a(S'Trimmed back watch list SVXY $TSLA $VLO $CVX $HAL ....'
p208
S'Bullish'
p209
tp210
a(S'Trade signal, 77% chance,$CVX will close above $114.45 support by end of session. Bullish. http://tradespoon.com/s.php?t=$CVX'
p211
S'Bullish'
p212
tp213
a(S'$OAS $BP $CVX Good summary of Baron Energy and Resources Letter- long thesis for energy names: https://investoralmanac.com/2017/07/31/baron-energy-and-resources-2q17-contradictions-plaguing-the-industry-peak-demand-really/'
p214
S'Bullish'
p215
tp216
a(S'$CVX'
p217
S'Bullish'
p218
tp219
a(S'$CVX pull back to 110 and then next stop 120 is my guess'
p220
S'Bullish'
p221
tp222
a(S'$CVX Chevron is a better chart than $XOM - CNBC'
p223
S'Bullish'
p224
tp225
a(S'$CVX Chevron is the way to go on energy comeback - now on CNBC'
p226
S'Bullish'
p227
tp228
a(S'$CVX Bullish oil.  Long oil companies. https://www.tradingview.com/chart/yUlUKfrU/\n\nTargets in yellow lines.'
p229
S'Bullish'
p230
tp231
a(S'$COP $CVX $OXY Fantastic read- Once in a lifetime opportunity to profit in energy stocks-  https://investoralmanac.com/2017/09/16/once-in-an-investment-lifetime-opportunity-to-profit-in-commodities/'
p232
S'Bullish'
p233
tp234
a(S'$SPX Support moves up from $2400 area to $2450 area $SPY SVXY $AAPL $NFLX $FB $MRVL $JPM $CELG $CVX $VLO $TSLA $PNC'
p235
S'Bullish'
p236
tp237
a(S'$XOM $COP $CVX Great Summary: Once In a Lifetime Opportunity to Invest in Energy Equities: https://investoralmanac.com/2017/09/16/once-in-an-investment-lifetime-opportunity-to-profit-in-commodities/'
p238
S'Bullish'
p239
tp240
a(S'$CSCO https://www.streetauthority.com/income-investing/tech-income-you-better-believe-it-30701454?utm_source=NL-SAD&amp;utm_medium=EMAIL&amp;U=94395282&amp;utm_campaign=SAD_Tech_For_Income?_You_Better_Believe_It..'
p241
S'Bullish'
p242
tp243
a(S'$CSCO Long setup'
p244
S'Bullish'
p245
tp246
a(S'$CSCO Another one for you mofoz!'
p247
S'Bullish'
p248
tp249
a(S'$CSCO slowest breakout ever lol been waiting'
p250
S'Bullish'
p251
tp252
a(S'$GSUM has brand clients like $KORS, $CSCO, partnerships with the likes of $TCEHY, growth is coming from areas like e-governance. Quality.'
p253
S'Bullish'
p254
tp255
a(S'$CSCO scalped.  $GE back in $23.78'
p256
S'Bullish'
p257
tp258
a(S'100% profit on sold options for 9/15 exp on $AAPL, $PM, $PAYC, $NKE, $NXPI, $GOOGL, $FB, $BABA, $NTES, $EEM, $MRK, $CSCO.'
p259
S'Bullish'
p260
tp261
a(S'Looking to buy $CSCO on a dip.  Sold Oct 20 $32.00 puts for $0.38.  65% chance of a 100% profit.'
p262
S'Bullish'
p263
tp264
a(S'$NTNX wondering aloud if timing of Chambers decision at $CSCO may signal changes/opportunities for Dheeraj? #canaryinthecoalmine ?'
p265
S'Bullish'
p266
tp267
a(S'$CSCO long term'
p268
S'Bullish'
p269
tp270
a(S'$UBNT is crushing $CSCO ask any internet service provider or managed network company'
p271
S'Bullish'
p272
tp273
a(S'In $AMD 13.02 $MU 35.30 $NVDA 186 $CSCO 32.52 chart anaylsis in a sec (follow :P)'
p274
S'Bullish'
p275
tp276
a(S'$CSCO undervalued..long term bullish'
p277
S'Bullish'
p278
tp279
a(S'$DPS still trading in a range but looks to be building energy. no pos $FIZZ $KO $PEP'
p280
S'Bullish'
p281
tp282
a(S'$DIS taking the kids to Orlando this weekend in a boat for free!'
p283
S'Bullish'
p284
tp285
a(S'$DIS watching football for free on air antennas this weekend!'
p286
S'Bullish'
p287
tp288
a(S'mother! In Theaters NOW. 5 STAR reviews! $CBS $FOXA $TWX $FB $TWTR $SNAP $SNE $DIS https://youtu.be/XpICoc65uh0'
p289
S'Bullish'
p290
tp291
a(S'$DIS absolute media giant. Great buy opp'
p292
S'Bullish'
p293
tp294
a(S'$DIS Strong buy 97.80'
p295
S'Bullish'
p296
tp297
a(S'$SFL $SFL technical alerts: MACD Bullish Signal Line Cross, MACD Bullish Centerline Cross,Volume Surge, Upside 200 DMA..  $USO $DE $DD $CHK'
p298
S'Bullish'
p299
tp300
a(S'$KYN is a showing BUY signal. oil hits 4 month high today! $OPK $DD $SQ $TSLA $SVRA $CSIQ $HALO $USO'
p301
S'Bullish'
p302
tp303
a(S'$SEED china wants to pump up corn production for ethanol https://www.reuters.com/article/us-china-biofuels-policy/china-set-for-ethanol-binge-as-beijing-pumps-up-renewable-fuel-drive-idUSKCN1BO17W GMO positive on its way. $DD $SYT $MON $DWDP'
p304
S'Bullish'
p305
tp306
a(S'DowDuPont Revises Breakup Plan Opposed by Activist Investors http://ow.ly/JkOA30f6RJ4 $DOW $DD'
p307
S'Bullish'
p308
tp309
a(S'the insider purchase is either a sign China is going positive or CEO will create a shareholder value event from scratch $DD $SYT $MON .'
p310
S'Bullish'
p311
tp312
a(S'$SEED L2 Capital deal is real savvy. It takes 33 years at $DD to land L2. HARVARD?HA! Maybe cut your salary like you cut every other plan.'
p313
S'Bullish'
p314
tp315
a(S'DowDuPont Revises Breakup Plan Opposed by Activist Investors http://ow.ly/JkOA30f6RJ4 $DOW $DD'
p316
S'Bullish'
p317
tp318
a(S'$HAL $WLL $WFT $CVX $XOM Goldman-Sachs-Oil-Majors-See-Upside-At-50-Oil. M&amp;A time??\nhttp://oilprice.com/Energy/Oil-Prices/Goldman-Sachs-Oil-Majors-See-Upside-At-50-Oil.html'
p319
S'Bullish'
p320
tp321
a(S'$XOM is Bullish above $79.93. Trade near  $79.93 http://tradespoon.com/s.php?t=$XOM'
p322
S'Bullish'
p323
tp324
a(S'$XOM am a little suprised that i was correct to buy back my put spread for sept. The downstream side of exxon has to be making a killing.'
p325
S'Bullish'
p326
tp327
a(S'Trade alert, 81% chance,$XOM will close above $80.09 support by end of session. Bullish. http://tradespoon.com/s.php?t=$XOM'
p328
S'Bullish'
p329
tp330
a(S'Trade signal, 75% chance,$XOM will close above $80.09 support by end of session. Bullish. http://tradespoon.com/s.php?t=$XOM'
p331
S'Bullish'
p332
tp333
a(S'$XOM push through that $80 ceiling!'
p334
S'Bullish'
p335
tp336
a(S'$XLE $XOM $XOP Great Read- Once in a lifetime opportunity to profit from Energy Stocks- https://investoralmanac.com/2017/09/16/once-in-an-investment-lifetime-opportunity-to-profit-in-commodities/'
p337
S'Bullish'
p338
tp339
a(S'$DXCM $BTI $WY $BAC $XXII $FNB $LYG $XOM go long!'
p340
S'Bullish'
p341
tp342
a(S'$XOM $COP $CVX Great Summary: Once In a Lifetime Opportunity to Invest in Energy Equities: https://investoralmanac.com/2017/09/16/once-in-an-investment-lifetime-opportunity-to-profit-in-commodities/'
p343
S'Bullish'
p344
tp345
a(S'$GE $BHP $BBL Once in a Lifetime Opportunity to Profit from Commodity Stocks - Great Read: https://investoralmanac.com/2017/09/16/once-in-an-investment-lifetime-opportunity-to-profit-in-commodities/'
p346
S'Bullish'
p347
tp348
a(S'$GE  finally thank you thank you thank you RBC Capital reiterates Buy rating, $31 PT (long live RBC Capital)'
p349
S'Bullish'
p350
tp351
a(S'$GE only reason down Friday. Ex dividend date.'
p352
S'Bullish'
p353
tp354
a(S'$GE opened a new position just under $24... hoping this dips more so I can load up for the long haul '
p355
S'Bullish'
p356
tp357
a(S'$GE got in at 24, will adjust position higher if it dips further'
p358
S'Bullish'
p359
tp360
a(S'@bobky crazy volume today for $GE'
p361
S'Bullish'
p362
tp363
a(S'$GE whoa! GE making a gain today. Alerts set for the scalp down and swing back up! This has a buy rating.'
p364
S'Bullish'
p365
tp366
a(S'$SPY $GE and $KHC are now strong buys along with $KR and $CHK $RRC $JNJ'
p367
S'Bullish'
p368
tp369
a(S'$GE bottom is in, great first day of the reversal'
p370
S'Bullish'
p371
tp372
a(S'$GE 26.00 to 27.00 by earnings. If positive CC from new CEO. 30.00 by year ends.  All.  JMO'
p373
S'Bullish'
p374
tp375
a(S'$GE Strong let&#39;s break 24.60'
p376
S'Bullish'
p377
tp378
a(S'$GE Still a Titan and will remain a Titan. Safe place for your money and to collect that div. Stop hating you haters.'
p379
S'Bullish'
p380
tp381
a(S'$GE break that 24.50'
p382
S'Bullish'
p383
tp384
a(S'$GE god blesses America'
p385
S'Bullish'
p386
tp387
a(S'$GE I personally can&#39;t stand to buy a stock on green days. Seeing people say &quot;strong buy now&quot; makes me cringe. Glad I got in @ $23.70'
p388
S'Bullish'
p389
tp390
a(S'$GE Keep climbing dammit!'
p391
S'Bullish'
p392
tp393
a(S'$SPY $GE strong buy now'
p394
S'Bullish'
p395
tp396
a(S'$GE wow. Going to breakout big'
p397
S'Bullish'
p398
tp399
a(S'$SPY parabolic move up in banks very possible within the nest 2 weeks IMO,,, $XLF $GS $JPM $BAC $CS $UBS'
p400
S'Bullish'
p401
tp402
a(S'$GS   For Monday.  Call options bought $227.5 strike sept 22 expiration.'
p403
S'Bullish'
p404
tp405
a(S'@MTBC5dollars  @bagholder4life I agree with that, the consolidation the past few days has been solid. Break into 50&#39;s soon. $GS upgrade too!'
p406
S'Bullish'
p407
tp408
a(S'$GS $CMG $SPY I really just feel like this is a teachable moment. I just got twice as bullish on CMG'
p409
S'Bullish'
p410
tp411
a(S'$XLF up cycle under way; just now passing through zero line - last week we noted the lows were a buy $BAC $GS $HBAN'
p412
S'Bullish'
p413
tp414
a(S'$GS Headed back to 250+ buy December.'
p415
S'Bullish'
p416
tp417
a(S'$GS Yes. Evil wins more than we would like to admit. Buy. Just cross your fingers behind your back and you will be absolved of your sins.'
p418
S'Bullish'
p419
tp420
a(S'$BBRY yes $GS got retailers shares short lol   #keyone'
p421
S'Bullish'
p422
tp423
a(S'$HD $GNRC up 5%, who sells Generac generators? You got that right!'
p424
S'Bullish'
p425
tp426
a(S'@DoobieDan we shall be rich brother ...my portfolio is exactly that.. plus small stake in $HD and $AMD'
p427
S'Bullish'
p428
tp429
a(S'$HD $LOW what&#39;s a reasonable amount of time after Harvey and Irma for analysts to begin increasing their PT?'
p430
S'Bullish'
p431
tp432
a(S'$HD Where does everyone see this going next 2 weeks? +$165?'
p433
S'Bullish'
p434
tp435
a(S'$HD $AAPL \nI just hold these stocks so my father won&#39;t bitch at me for being wreckless'
p436
S'Bullish'
p437
tp438
a(S'$HD Wow! That volume spiked last two hours. Especially last 30 minutes.'
p439
S'Bullish'
p440
tp441
a(S'$HD Added a couple of 160 weeklies September 22nd on this spike. Too cheap, couldn&#39;t help myself.'
p442
S'Bullish'
p443
tp444
a(S'$HD Algo low volume OPEX death grip on this one. How the game is played. $155 or below nxt week, I&#39;m adding BIGLY!'
p445
S'Bullish'
p446
tp447
a(S'$HD Added some common here for my retirement also. I&#39;m all stocked up on monthly October &amp; November calls w/ some Sept 22nd 157.50 weeklies'
p448
S'Bullish'
p449
tp450
a(S'$HD I&#39;m accumulating here'
p451
S'Bullish'
p452
tp453
a(S'$HD I cant belive this nonsense. If it dips to $156 I&#39;ll definitely be doubling my postion.'
p454
S'Bullish'
p455
tp456
a(S'$HD cmon close green !'
p457
S'Bullish'
p458
tp459
a(S'$CX $HD Cemex biggest cement seller in Puerto Rico which will receive direct impact from hurricane Maria.'
p460
S'Bullish'
p461
tp462
a(S'$CX another hurricane Maria coming thru, building materials get another push $HD $CX'
p463
S'Bullish'
p464
tp465
a(S'$HD more hurricanes on the way you know what that means !!!!'
p466
S'Bullish'
p467
tp468
a(S'$HD Hurricane Maria to devastate PR and USVI... https://weather.com/storms/hurricane/news/hurricane-maria-lesser-antilles-northeast-caribbean-islands'
p469
S'Bullish'
p470
tp471
a(S'Focus on Gold, Silver, Precious Metals Mining and Royalty Streaming\n\n$GLD,$SLV,$EXCFF,$IBM  http://www.livetradingnews.com/focus-gold-silver-precious-metals-mining-royalty-streaming-54897.html#.WbylMch96M8'
p472
S'Bullish'
p473
tp474
a(S'@Daisy7 Make no mistake, $IBM will successfully adapt to a new business model and continue to be a major player with outstanding value.'
p475
S'Bullish'
p476
tp477
a(S'$WKHS make electric Trucks and drones for law enforcement and civilian FLEETS. $TSLA $THO $GM $FSLR $VSLR $GE $TERP $SEDG $MBLY $IBM'
p478
S'Bullish'
p479
tp480
a(S'$AMZN R&amp;D expenses topped $19 billion, ahead of $GOOG $MSFT $IBM $AAPL https://stockrow.com/share/174e8d568fb27f98d8ec803c73c91f22'
p481
S'Bullish'
p482
tp483
a(S'$IBM Falling wedge breakout into C&amp;H long setup'
p484
S'Bullish'
p485
tp486
a(S'$INTL could be good closing on higher highs ?'
p487
S'Bullish'
p488
tp489
a(S'$AMD everything is red today. $intl, $Nvidia, $msft and so on. Great opportunity to buy it cheap'
p490
S'Bullish'
p491
tp492
a(S'$VUZI $INTL still holding their all position. DO NOT LISTEN SHORTS.'
p493
S'Bullish'
p494
tp495
a(S'$GUD.CA $VRX $JNJ GUD buys 18% in dirt cheap Synergy (SNYR), beauty &amp; pharma products, SA article:https://seekingalpha.com/instablog/526931-value-digger/5039277-synergy-chc-unknown-cheap-profitable-growth-stock-hot-innovative-brands'
p496
S'Bullish'
p497
tp498
a(S'Trade alert, 73% chance,$JNJ will close above $134.45 support by end of session. Bullish. http://tradespoon.com/s.php?t=$JNJ'
p499
S'Bullish'
p500
tp501
a(S'$JNJ Holding Oct 135 &amp; 140 calls. Could achieve a new 52 week high by month-end'
p502
S'Bullish'
p503
tp504
a(S'@CuddleBunny @LittleA @TickrTalk A buyout had been discussed in the past but nothing recent. 2 that I can think of were $JNJ and $PFE'
p505
S'Bullish'
p506
tp507
a(S'Volume on TITXF spiking, way behind TRXC in FDA process but has some good intellectual property/patents. Both are $MDT $JNJ targets'
p508
S'Bullish'
p509
tp510
a(S'$MRTX $AUPH $MRK $JNJ all BIO should be buying THIS! 150% in a day, 300% in 2 days, 1000% in 3 dayss!!!'
p511
S'Bullish'
p512
tp513
a(S'$JNJ'
p514
S'Bullish'
p515
tp516
a(S'$JNJ good potential with the news higher price next week calls are looking great at the moment'
p517
S'Bullish'
p518
tp519
a(S'$SPY $GE and $KHC are now strong buys along with $KR and $CHK $RRC $JNJ'
p520
S'Bullish'
p521
tp522
a(S'$JNJ Don&#39;t stop just keep rising'
p523
S'Bullish'
p524
tp525
a(S'Did I mention $POT $BA $TSLA $DHI $JNJ $EBAY $SQ $AMAT $MRVL $TXN  ?'
p526
S'Bullish'
p527
tp528
a(S'Check out $JNJ $TSLA'
p529
S'Bullish'
p530
tp531
a(S'$JNJ look very bullish on daily chart possible break 52 this week or by next weekweek'
p532
S'Bullish'
p533
tp534
a(S'3 things biotech taught us this week. \n\nRead more here: https://seekingalpha.com/article/4107437-3-things-biotech-learn-today-september-16-2017\n\n$JNJ $MRK $BMY $MRTX'
p535
S'Bullish'
p536
tp537
a(S'$BTC.X who is more trustworthy, Jamie Dimon of $jpm, CFO John Gamble of $efx, or humble ship builder Georgie of $drys?'
p538
S'Bullish'
p539
tp540
a(S'$BTC.X $JPM $ETH.X  $LTC.X $NEO.X  #Bitcoin #cryptocurrency www.cryptorockstars.com'
p541
S'Bullish'
p542
tp543
a(S'$BTC.X rest of our life using our tax dollars to bail out shady companies like $JPM or adopt a fair system where we cut 3rd parties out??'
p544
S'Bullish'
p545
tp546
a(S'$SPY parabolic move up in banks very possible within the nest 2 weeks IMO,,, $XLF $GS $JPM $BAC $CS $UBS'
p547
S'Bullish'
p548
tp549
a(S'Trimmed back watch list SVXY $AMTD $MS $JPM $BAC ..... .'
p550
S'Bullish'
p551
tp552
a(S'$BTC.X when $JPM has dimon talking smack to bring this lower then u see them load the boat on the dip, you know its going higher. Accumulate'
p553
S'Bullish'
p554
tp555
a(S'LOL $JPM and Jamie Dimon&#39;s daughter have been buying $BTC.X. I bet they bought $ETH.X too. http://www.trustnodes.com/2017/09/16/jp-morgan-buys-bitcoin-price-rises-20'
p556
S'Bullish'
p557
tp558
a(S'$LTC.X Litecoin is going to break above $100 before $JPM does'
p559
S'Bullish'
p560
tp561
a(S'@DanNathan @CNBC @CNBCFastMoney I would not buy $JPM because they actually had a guy who called himself a whale working there.'
p562
S'Bullish'
p563
tp564
a(S'1:06PM CHECK ---- Bullish Stats $SVXY $NFLX $TSLA $MRVL $JPM $NVDA $CELG ....'
p565
S'Bullish'
p566
tp567
a(S'$MCD Wake me up when it&#39;s 173 like it ought to be.'
p568
S'Bullish'
p569
tp570
a(S'$BWLD OCT20 105C #trendreversal #breakout #Bullish move aside $PLAY $CMG $BOBE $MCD $EAT $ARCO $TACO $DRI '
p571
S'Bullish'
p572
tp573
a(S'$MCD target price 172.30$\n\nForecast from Dominant investors app'
p574
S'Bullish'
p575
tp576
a(S'$MCD Back to 160 today.'
p577
S'Bullish'
p578
tp579
a(S'$MCD Holding update in at $130 up $27/share 21% Return Holding Long Also own shares LT from $65'
p580
S'Bullish'
p581
tp582
a(S'$MCD closing greennn??'
p583
S'Bullish'
p584
tp585
a(S'$MCD nice comeback!'
p586
S'Bullish'
p587
tp588
a(S'$MCD great rebound. Will only go up. $$$ profits from its expansions'
p589
S'Bullish'
p590
tp591
a(S'$MCD it&#39;s only up from here. Looking for an afternoon jump.'
p592
S'Bullish'
p593
tp594
a(S'now trading .87/.92 for the weekly 157.50... looking for a nice 30% flip for the day $mcd'
p595
S'Bullish'
p596
tp597
a(S'$MCD We will slowly break $160 again.. $2 McCafe rolling out just watch...'
p598
S'Bullish'
p599
tp600
a(S'@tradewithjoe just bought some weekly $157.50 calls at .81..: has bounced from here repeatedly will watch closely $mcd'
p601
S'Bullish'
p602
tp603
a(S'@chris333 What&#39;s your point dude? Everything has a safety label on it these days. $MCD coffee cups have one for God&#39;s sake...'
p604
S'Bullish'
p605
tp606
a(S'$DCTH $MRK \nJuly Meeting with Buyout Rumor'
p607
S'Bullish'
p608
tp609
a(S'$ATOS  I would only believe it. when $ATOS or $mrk actually have an official press release.'
p610
S'Bullish'
p611
tp612
a(S'$MRK Anybody knows about release data on sept/22 about FDA'
p613
S'Bullish'
p614
tp615
a(S'$MRK'
p616
S'Bullish'
p617
tp618
a(S'$ATOS Rumors if $mrk get a hold of ATOS endoxifen cancer treatment. This will go up. that&#39;s a  big IF. I will search for that info.'
p619
S'Bullish'
p620
tp621
a(S'$MRTX $AUPH $MRK $JNJ all BIO should be buying THIS! 150% in a day, 300% in 2 days, 1000% in 3 dayss!!!'
p622
S'Bullish'
p623
tp624
a(S'@BLACKCLOUD you mean like BuyOut? Yes, $MRK will buy this GOLD!'
p625
S'Bullish'
p626
tp627
a(S'100% profit on sold options for 9/15 exp on $AAPL, $PM, $PAYC, $NKE, $NXPI, $GOOGL, $FB, $BABA, $NTES, $EEM, $MRK, $CSCO.'
p628
S'Bullish'
p629
tp630
a(S'$MRK look at ALT.. at bottom.. time to get in..'
p631
S'Bullish'
p632
tp633
a(S'$MRTX holding within a nice daily channel... MAKE $MRTX $MRK $DCTH  $NVCN $ITUS $NETE GREAT AGAIN'
p634
S'Bullish'
p635
tp636
a(S'3 things biotech taught us this week. \n\nRead more here: https://seekingalpha.com/article/4107437-3-things-biotech-learn-today-september-16-2017\n\n$JNJ $MRK $BMY $MRTX'
p637
S'Bullish'
p638
tp639
a(S'Trade signal, 81% chance,$MRK will close above $66.12 support by end of session. Bullish. http://tradespoon.com/s.php?t=$MRK'
p640
S'Bullish'
p641
tp642
a(S'$PG $NWL $MRK $BMY $PFE Knight(GUD) buys 18% (!) in dirt cheap Synergy (SNYR), beauty &amp; pharma products, SA article:https://seekingalpha.com/instablog/526931-value-digger/5039277-synergy-chc-unknown-cheap-profitable-growth-stock-hot-innovative-brands'
p643
S'Bullish'
p644
tp645
a(S'$DCTH $MRK \nJuly Meeting with Buyout Rumor'
p646
S'Bullish'
p647
tp648
a(S'$ATOS  I would only believe it. when $ATOS or $mrk actually have an official press release.'
p649
S'Bullish'
p650
tp651
a(S'$MRK Anybody knows about release data on sept/22 about FDA'
p652
S'Bullish'
p653
tp654
a(S'$MRK'
p655
S'Bullish'
p656
tp657
a(S'$ORCL see buy vs sell orders most undervalued cloud company among $crm $MSFT $AMZN'
p658
S'Bullish'
p659
tp660
a(S'$MSFT Power BI is a game changer &amp; will be on every corporate CPU that has Excel within one yr at $99 per script.'
p661
S'Bullish'
p662
tp663
a(S'$AMZN $MSFT &amp; $GOOGL all shot up AH, why? Not that I mind'
p664
S'Bullish'
p665
tp666
a(S'$MSFT this what I love about msft it doesn&#39;t go s triaght up.    It gives the long term investor opportunities'
p667
S'Bullish'
p668
tp669
a(S'$AAOI $NVDA $MSFT Bought the afternoon dip'
p670
S'Bullish'
p671
tp672
a(S'$MSFT, $BA, $TXN, $AVY, and $EEM breaking out again.  Adding to position.'
p673
S'Bullish'
p674
tp675
a(S'$DLTH $NKE $ZUMZ $UA $SPY https://seekingalpha.com/article/4104950-duluth-trading-downtrend-done'
p676
S'Bullish'
p677
tp678
a(S'Stocking up on $NKE while it&#39;s still a bargain. Holding 6800 shares through earnings.'
p679
S'Bullish'
p680
tp681
a(S'$NKE exact price before last ER and it bounced like crazy'
p682
S'Bullish'
p683
tp684
a(S'$NKE what a good buying day.'
p685
S'Bullish'
p686
tp687
a(S'Nike: Should We Listen To Kevin Durant? https://seekingalpha.com/article/4107740?source=ansh $NKE'
p688
S'Bullish'
p689
tp690
a(S'$NKE great profit margins. It&#39;s recent air jordan expansion in china is HUGE'
p691
S'Bullish'
p692
tp693
a(S'100% profit on sold options for 9/15 exp on $AAPL, $PM, $PAYC, $NKE, $NXPI, $GOOGL, $FB, $BABA, $NTES, $EEM, $MRK, $CSCO.'
p694
S'Bullish'
p695
tp696
a(S'@mstowe6 $PFE About 1 man in 39 will die of prostate cancer. I honestly think we crack $38 in less than 2 weeks.'
p697
S'Bullish'
p698
tp699
a(S'exiting $GLD $KOL $PICK $NOMD ; entering $GPRO $FEYE $HALO $PFE $ITA $UCO to join $ASHR $BABA $CRM $KGC $MVIS $MYGN $SERV $SPR $XBI $YNDX'
p700
S'Bullish'
p701
tp702
a(S'$PFE damn screwed up big time  I saw this move coming'
p703
S'Bullish'
p704
tp705
a(S'$PFE $37 next week if market cooperates'
p706
S'Bullish'
p707
tp708
a(S'@CuddleBunny @LittleA @TickrTalk A buyout had been discussed in the past but nothing recent. 2 that I can think of were $JNJ and $PFE'
p709
S'Bullish'
p710
tp711
a(S'$PFE http://www.nasdaq.com/article/pfizer-xtandi-succeeds-in-early-stage-prostate-cancer-study-cm846359'
p712
S'Bullish'
p713
tp714
a(S'Jeff Update from sickle cell SCD Therapeutics Conference $SGMO $BIVV $GBT $NVS $PFE https://twitter.com/_B_I_O_T_E_C_H_/status/908618713963909120'
p715
S'Bullish'
p716
tp717
a(S'$PFE Beautiful blue sky'
p718
S'Bullish'
p719
tp720
a(S'$PFE look at ALT.. high potential..'
p721
S'Bullish'
p722
tp723
a(S'$NBRV $aldx $mrtx $svra $evok $bmy $pfe get in here if u like free money more volume more $'
p724
S'Bullish'
p725
tp726
a(S'$BAX RMD $PFE $BMY'
p727
S'Bullish'
p728
tp729
a(S'$PG target price 108.40$\n\nForecast from Dominant investors app'
p730
S'Bullish'
p731
tp732
a(S'$PG fast 50% on weekly calls.  Don&#39;t like the wide spread'
p733
S'Bullish'
p734
tp735
a(S'Yacktman Asset Management Supports Nelson Peltz At P&amp;G http://ow.ly/uPTu30fdzVz $PG'
p736
S'Bullish'
p737
tp738
a(S'$JKS $BABA $AMZN $JD $AAPL $TSLA $FB $MSFT $WB $NVDA $GOOGL $PG $GE $NTES $BRK.A $TWTR $NFLX   Value investing should be a human attitude.'
p739
S'Bullish'
p740
tp741
a(S'$PG $NWL $MRK $BMY $PFE Knight(GUD) buys 18% (!) in dirt cheap Synergy (SNYR), beauty &amp; pharma products, SA article:https://seekingalpha.com/instablog/526931-value-digger/5039277-synergy-chc-unknown-cheap-profitable-growth-stock-hot-innovative-brands'
p742
S'Bullish'
p743
tp744
a(S'$BA $LMT $RTN $HON $MMM $UTX Every time N. Korea do some shooting or Bomb test this stocks moving up Higher. Is gonna get more higher.'
p745
S'Bullish'
p746
tp747
a(S'$UTX looking for $115+ today!'
p748
S'Bullish'
p749
tp750
a(S'$UTX United Tech perked up today. I&#39;m a buyer down here with or without $COL acquisition but believe will pass'
p751
S'Bullish'
p752
tp753
a(S'$UTX UTX - Reversal and long position initiated. 14.09.17\ndBFI just signaled a reversal and had a confirmation\nLong @ 1'
p754
S'Bullish'
p755
tp756
a(S'$GE $BA $MMM $HON $UNP $UTX $UPS $LMT $CAT $GD top holdings of $XLI'
p757
S'Bullish'
p758
tp759
a(S'$LMT $RTN $GD $NOC $UTX $BA Holding Long Bullish on Aero/defense... NK/Kim will be stimulus for years even WITHOUT war'
p760
S'Bullish'
p761
tp762
a(S'Based on stats,67% chance,$UTX will close above $112.56 support by end of session. Bullish. http://tradespoon.com/s.php?t=$UTX'
p763
S'Bullish'
p764
tp765
a(S'$BA $LMT $RTN $HON $MMM $UTX Every time N. Korea do some shooting or Bomb test this stocks moving up Higher. Is gonna get more higher.'
p766
S'Bullish'
p767
tp768
a(S'Trade signal, 83% chance,$UNH will close above $198.18 support by end of session. Bullish. http://tradespoon.com/s.php?t=$UNH'
p769
S'Bullish'
p770
tp771
a(S'$UNH flip flopping not sure what&#39;s next. Big move though.'
p772
S'Bullish'
p773
tp774
a(S'$UNH I&#39;m flip flopping ?  Thus'
p775
S'Bullish'
p776
tp777
a(S'$UNH'
p778
S'Bullish'
p779
tp780
a(S'$UNH go green!!'
p781
S'Bullish'
p782
tp783
a(S'When excessive optimism far outweighs normal rational expectations, crashes occur  and this will be the case with $UNH $CI very soon.'
p784
S'Bullish'
p785
tp786
a(S'$UNH to flat at $200 until Friday then resume pushing up to $220 by Sept 22 expiration.'
p787
S'Bullish'
p788
tp789
a(S'Health care should continue uptrend with Trump failing. $CI. Our lovely $UNH should hit $250 by December.'
p790
S'Bullish'
p791
tp792
a(S'Trade signal, 83% chance,$UNH will close above $198.18 support by end of session. Bullish. http://tradespoon.com/s.php?t=$UNH'
p793
S'Bullish'
p794
tp795
a(S'$UNH flip flopping not sure what&#39;s next. Big move though.'
p796
S'Bullish'
p797
tp798
a(S'$UNH I&#39;m flip flopping ?  Thus'
p799
S'Bullish'
p800
tp801
a(S'When excessive optimism far outweighs normal rational expectations, crashes occur  and this will be the case with $UNH $CI very soon.'
p802
S'Bullish'
p803
tp804
a(S'Based on stats,69% chance,$VZ will close above $47.14 support by end of session. Bullish. http://tradespoon.com/s.php?t=$VZ'
p805
S'Bullish'
p806
tp807
a(S'$VZ 5 years, over $200 IMO #Fiber'
p808
S'Bullish'
p809
tp810
a(S'$VZ is in EMA33 Breakout winning 62.32% in the past. https://goo.gl/MZMgA2'
p811
S'Bullish'
p812
tp813
a(S'$SSNLF gonna sell &amp; take some REAL market share from Apple. $AAPL. Note 8 is better, will depend on deals $T $VZ $S\n\nhttp://quad7capital.com/2017/09/15/move-apple-iphone-8-samsungs-galaxy-note-8/'
p814
S'Bullish'
p815
tp816
a(S'$VZ holding my entire position until we breakout to 54+. Until then I will collect my divs!'
p817
S'Bullish'
p818
tp819
a(S'$VZ'
p820
S'Bullish'
p821
tp822
a(S'$TMUS $T $VZ $AAPL Watch 3 will work without an iPhone nearby, but it will add $10/month to bills from wireless carriers'
p823
S'Bullish'
p824
tp825
a(S'$VZ looking for over $51, possibly $52'
p826
S'Bullish'
p827
tp828
a(S'$V This is a Q-4 super Play, with or without a Fed rate increase.'
p829
S'Bullish'
p830
tp831
a(S'Trade alert, 73% chance,$V will close above $105.3 support by end of session. Bullish. http://tradespoon.com/s.php?t=$V'
p832
S'Bullish'
p833
tp834
a(S'$V Increased position here. Solid support at 105.19-20'
p835
S'Bullish'
p836
tp837
a(S'$V In now at 105.19!'
p838
S'Bullish'
p839
tp840
a(S'$V Unit cost is 100.87'
p841
S'Bullish'
p842
tp843
a(S'$GBTC Floyd Mayweather post today!!$btc.x $ETH.X $LTC.X $JPM $v  #bitcoin $XLF'
p844
S'Bullish'
p845
tp846
a(S'$V Under 106 is a solid buy IMO $MA $AXP $PYPL $SQ'
p847
S'Bullish'
p848
tp849
a(S'$V'
p850
S'Bullish'
p851
tp852
a(S'Feeling some lotto $V calls weekly opex...'
p853
S'Bullish'
p854
tp855
a(S'$WMT https://www.facebook.com/leann.hughes.315/posts/1643111329040490'
p856
S'Bullish'
p857
tp858
a(S'$WMT Amazon we are on your back watch out.. King of retail also building new HQ.'
p859
S'Bullish'
p860
tp861
a(S'Target Surrenders To Amazon: Rest Of Retail To Follow https://seekingalpha.com/article/4107277?source=ansh $TGT, $KR, $AMZN, $WMT'
p862
S'Bullish'
p863
tp864
a(S'$WMT we&#39;ve been pinned to the 80 range awhile... but I still think we see mid 90s next year mid 18.'
p865
S'Bullish'
p866
tp867
a(S'$KR Kroger looks well positioned in a challenging grocery industry. Get an analysis here. https://seekingalpha.com/article/4106383-kroger-starting-look-appetizing-12_9x-ttm-p-e $WMT $WFM $AMZN $SWY $SFM'
p868
S'Bullish'
p869
tp870
a(S'$SPY $QQQ $WMT Why are democrats so violent ?  https://youtu.be/BpgZVt_MGRE'
p871
S'Bullish'
p872
tp873
a(S'Toys r Us is too expensive, you can buy same toys cheaper on $AMZN or at $WMT and $MAT $HAS will sell more now and at a better price'
p874
S'Bullish'
p875
tp876
a(S'$IMKTA Ingles is Another Bargain in the Grocery Aisle at 10.5 P/E. Check it out here https://seekingalpha.com/article/4107732-ingles-markets-bargain-trading-book-value-10_2x-ttm-p-e $KR $WMT $AMZN $COST $SFM $PUSH'
p877
S'Bullish'
p878
tp879
a(S'$KR Kroger is a formidable player in the grocery industry and looks attractively valued! https://seekingalpha.com/article/4106383-kroger-starting-look-appetizing-12_9x-ttm-p-e $WMT $AMZN $SFM $COST $PSMT'
p880
S'Bullish'
p881
tp882
a(S'Currently dwn on our $ORCL trade. Stayin long for now tho. Still in long term upward channel. But we got 2 nice winners in $WMT $NTES today!'
p883
S'Bullish'
p884
tp885
a(S'TRADE CLOSED\n$WMT $80 Oct.20 Calls\nCost: $1.4\nSold: $2.15\n+$450 / 54% GAIN $$$\n#OptionPros Trade Alerts! Gain with us TODAY! Email/Msg us!'
p886
S'Bullish'
p887
tp888
a(S'@leomega  I can see how the $BABA #Alibaba deal could easily build #business for $MAT.  Not to mention $WMT &amp; &amp;AMZN will just pick it up'
p889
S'Bullish'
p890
tp891
a(S'$WMT $DLTR Long only two retailers... The ones who cater to the Masses... And Amazon Proof'
p892
S'Bullish'
p893
tp894
a(S'$TGT continues its upside move after breaking out $WMT'
p895
S'Bullish'
p896
tp897
a(S'Jeff Update from sickle cell SCD Therapeutics Conference $SGMO $BIVV $GBT $NVS $PFE https://twitter.com/_B_I_O_T_E_C_H_/status/908618713963909120'
p898
S'Bullish'
p899
tp900
a(S'$NVS target price 95.00$\n\nForecast from Dominant investors app'
p901
S'Bullish'
p902
tp903
a(S'$NVS'
p904
S'Bullish'
p905
tp906
a(S'$NVS all this wonderful news and the stock is crawling.  Give it time cures will be worth money.'
p907
S'Bullish'
p908
tp909
a(S'$NVS waiting for the breakout to make 20%. Watch the $86 line'
p910
S'Bullish'
p911
tp912
a(S'$NVS'
p913
S'Bullish'
p914
tp915
a(S'$GILD meeting uniquely head of oncology Alessandro Rivera#geneediting $SGMO $KITE $JUNO $GSK $NVS $BLUE'
p916
S'Bullish'
p917
tp918
a(S'$BLFS COLD CHAIN 2.0 KIDDIES GET SOME $XBI $KITE $BLCM $ADAP $JUNO $NVS $SGMO blah fkin blah'
p919
S'Bullish'
p920
tp921
a(S'$NVS look at ALT.. bright future ahead..'
p922
S'Bullish'
p923
tp924
a(S'$ENDP $NVS The Value Creator https://seekingalpha.com/article/4107631-novartis-value-creator'
p925
S'Bullish'
p926
tp927
a(S'MTSL (BioInvest) Issue 860: $SGMO - company update\n Partnership Soon   https://www.investorvillage.com/smbd.asp?mb=1933&amp;mn=90853&amp;pt=msg&amp;mid=17533748 $GILD $KITE $NVS $JUNO $ADAP $BLCM $BLUE $GSK'
p928
S'Bullish'
p929
tp930
a(S'$JUNO JUNO needs a BO to complete in the long run with $GILD and $NVS.  Look for possible BO by $CELG in 2H &#39;18 at $100+. Patience pays '
p931
S'Bullish'
p932
tp933
a(S'Heading to $100 $OIL ? https://www.linkedin.com/pulse/100-per-barrel-10-reasons-make-you-think-its-closer-than-pertini $USO $XOM $SPY $DIA $IWM $APA $CVX $COP $SLB $HAL $PBR $TSLA $TS $GM $F $XLE $OIH $CEO $PTR'
p934
S'Bullish'
p935
tp936
a(S'$PTR: The earnings of PetroChina Company Limited (ADR) are now forecast to grow. (https://stockflare.com/stock/PTR)'
p937
S'Bullish'
p938
tp939
a(S'$PTR: PetroChina Company Limited (ADR) is cheaper today at 39x earnings than it was a week ago at 46x earnings. (https://stockflare.com/stock/PTR)'
p940
S'Bullish'
p941
tp942
a(S'$PTR: The forecast EPS for PetroChina Company Limited (ADR) has increased to $1.65 from $1.34 in the last week. (https://stockflare.com/stock/PTR)'
p943
S'Bullish'
p944
tp945
a(S'$PTR: PetroChina Company Limited (ADR) has gained a star, now a 4 star stock. (https://stockflare.com/stock/PTR)'
p946
S'Bullish'
p947
tp948
a(S'$WFC Consolidation is over'
p949
S'Bullish'
p950
tp951
a(S'@TradinTemplar  Yawn. Same arguments for $TGT, $WFC, $ANTM.'
p952
S'Bullish'
p953
tp954
a(S'$WFC If one could pin-point what caused the dramatic pivot in the stock I&#39;d say it was this. This is Yuge!'
p955
S'Bullish'
p956
tp957
a(S'$WFC is in Fry Pan Bottom Pattern winning 71.43% in the past. https://goo.gl/bFo8hN'
p958
S'Bullish'
p959
tp960
a(S'@TradinTemplar 52.50 nov calls $WFC'
p961
S'Bullish'
p962
tp963
a(S'$WFC nice one '
p964
S'Bullish'
p965
tp966
a(S'$WFC I&#39;m not seeing this letting up.'
p967
S'Bullish'
p968
tp969
a(S'we are LONG $WFC calls via oct.20 exp. up 20% so far in just a few hours! #OptionPros'
p970
S'Bullish'
p971
tp972
a(S'$WFC is a good bank stock to own, though I would&#39;ve liked to be in it lower. #WellsFargo #finance'
p973
S'Bullish'
p974
tp975
a(S'@agamemnus @MaxPowerDoe this is overplayed, especially considering $HAS has 11% of business through ToysRUs and $MAT has deal with $BABA'
p976
S'Bullish'
p977
tp978
a(S'$BABA next week $178---&gt;$180.  Super September promotion launches Wednesday. $AABA'
p979
S'Bullish'
p980
tp981
a(S'$SPHS $ptn $epix $tsla $baba anyone here at the Hyatt regency Orlando? Tim Sykes?'
p982
S'Bullish'
p983
tp984
a(S'$BABA looks like we will get 2%up tomorrow~'
p985
S'Bullish'
p986
tp987
a(S'$BABA Anyone using some good technical indicators to find good exit points?'
p988
S'Bullish'
p989
tp990
a(S'$BABA damm i want to jump in.. but i see no dip coming :/'
p991
S'Bullish'
p992
tp993
a(S'$BABA Looks like Cramer is about to push a t stock that&#39;s up 100% this year but has room to run. Now I wonder what that could be.....:o)'
p994
S'Bullish'
p995
tp996
a(S'$NVDA $BZUN $AMD $BABA #WINNING #LONG'
p997
S'Bullish'
p998
tp999
a(S'$BABA $TSLA $NVDA $AAOI $CAT GREAT DAY!'
p1000
S'Bullish'
p1001
tp1002
a(S'$AAOI $GOOGL $BZUN $VER $MOMO $FB $YUMC $TSLA $BABA $NVDA $COP let&#39;s keep it going up !!!'
p1003
S'Bullish'
p1004
tp1005
a(S'$BABA is hitting 200 in q4 too! load up n00bz!'
p1006
S'Bullish'
p1007
tp1008
a(S'$AAOI thank you and big thanks to $nvda $amd $amat $baba'
p1009
S'Bullish'
p1010
tp1011
a(S'$BABA get in the ground floor before you we reach nose bleed territory that&#39;s $350 plus '
p1012
S'Bullish'
p1013
tp1014
a(S'$BABA has an amazing day! Huge volume!!!'
p1015
S'Bullish'
p1016
tp1017
a(S'$TWTR Ive noticed tiny restructures of the explore tab and have to say twitter is doing a nice job with the layout making it easier/better'
p1018
S'Bullish'
p1019
tp1020
a(S'mother! In Theaters NOW. 5 STAR reviews! $CBS $FOXA $TWX $FB $TWTR $SNAP $SNE $DIS https://youtu.be/XpICoc65uh0'
p1021
S'Bullish'
p1022
tp1023
a(S'$TWTR What happens when you wait too long &amp; miss the close. You try to Buy 31,000 shares AH'
p1024
S'Bullish'
p1025
tp1026
a(S'$TWTR So Max-Pain was blown but how are those $15 Put holders feeling?'
p1027
S'Bullish'
p1028
tp1029
a(S'$TWTR'
p1030
S'Bullish'
p1031
tp1032
a(S'$TWTR just a healthy correction, Tomorrow we see $18 again.'
p1033
S'Bullish'
p1034
tp1035
a(S'MGTI uplisting should be a fun day tomorrow $DRYS $CLF $BTC $EVOK $TWTR $FB'
p1036
S'Bullish'
p1037
tp1038
a(S'$TWTR ramping up in AH. Someone knows something....'
p1039
S'Bullish'
p1040
tp1041
a(S'$TWTR xiaotangfeidao we&#39;re still finishing up Quad Witch trades so vol in a few things are up AH'
p1042
S'Bullish'
p1043
tp1044
a(S'$TWTR another beautiful close'
p1045
S'Bullish'
p1046
tp1047
a(S'$TWTR everything bought up for the day. You have to be really stupid not to be able to see all the buying,the platforms show you in realtime'
p1048
S'Bullish'
p1049
tp1050
a(S'$FB is Facebook doing the stock split?  I&#39;m really hoping it does. I think that could be a catalyst that would take us to $200 pre split.'
p1051
S'Bullish'
p1052
tp1053
a(S'$FB split, er, and monetize messages app, and going to China. each one of these could drive fb share to 200!'
p1054
S'Bullish'
p1055
tp1056
a(S'@Momentum_Trader_  and if i were to throw $fb in the equation? Pick two ? I&#39;m bullish on all'
p1057
S'Bullish'
p1058
tp1059
a(S'$FB So many untapped opportunities for FB to monetize its properties! Owning FB today like owning GOOG IN 2007!'
p1060
S'Bullish'
p1061
tp1062
a(S'$FB Q3 will sqUAsh the fake-news and Russia BS. Those are totally irrelevant compared the money making powers of FB! EU taxes be damned!'
p1063
S'Bullish'
p1064
tp1065
a(S'$FB We&#39;re in the calm before the PR storm for FB. 9/26 will kick off the Q3 ER barrage. \nI then expect PT hikes and reiterations galore. '
p1066
S'Bullish'
p1067
tp1068
a(S'$FB 07 more trading sessions until Class-C 3:1 split decision.I look forward to owning 3X my shares at $57/ea. I&#39;ll swap the C&#39;s for A&#39;s'
p1069
S'Bullish'
p1070
tp1071
a(S'$FB Great piece on why the anti-big tech company crusade is doomed! http://markets.businessinsider.com/news/stocks/anti-big-tech-push-is-doomed-2017-9-1002376233 So many other companies so much worse than tech!'
p1072
S'Bullish'
p1073
tp1074
a(S'$FB Go long. Bullish'
p1075
S'Bullish'
p1076
tp1077
a(S'$FB Mainstream media will punish this stock all week before the news cycle expires. Buying opportunities incoming. 165-166? Get ready.'
p1078
S'Bullish'
p1079
tp1080
a(S'$FB the correct FB play is to buy about 3 weeks prior to earnings and selling the day after earnings. Rinse and repeat 4x a year = 45% gain.'
p1081
S'Bullish'
p1082
tp1083
a(S'$FB delta_strike So don&#39;t use it'
p1084
S'Bullish'
p1085
tp1086
a(S'$FB this should not have caused $AMZN to go down today. Not fair. If anything FB giving Mueller intel on potential russian colluders is'
p1087
S'Bullish'
p1088
tp1089
a(S'$TCEHY $GOOG $GOOGL Tencent vs google in stock return'
p1090
S'Bullish'
p1091
tp1092
a(S'BINGO!!!!! $SPY $DIA $QQQ $IWM $IYT $UVXY $XIV $FB $AMZN $AAPL $NFLX $GOOG'
p1093
S'Bullish'
p1094
tp1095
a(S'$DCTH I&#39;m not greedy...just want same price per share as $GOOG. I mean, it&#39;s  chemo with minimal side effect. Must be worth at least that'
p1096
S'Bullish'
p1097
tp1098
a(S'http://quad7capital.com/2017/09/15/google-might-buy-lyft/\n\nNo BS, the tea leaves and signs point to $GOOG, $GOOGL buying $LYFT. They own chunk of $UBER. Check it out'
p1099
S'Bullish'
p1100
tp1101
a(S'$KTOS Quick Question- NK, Russia, Iran and President Trump move defense Right? Who moves Tech ? Elon Musk, Artificial InT, $GOOG or $AMZN'
p1102
S'Bullish'
p1103
tp1104
a(S'FANGs getting kicked in the teeth. Dang. $AAPL $AMZN $GOOG'
p1105
S'Bullish'
p1106
tp1107
a(S'$AAPL One billion images. Difference between AAPL and Samsung? AAPL doesn&#39;t release a half-assed product.'
p1108
S'Bullish'
p1109
tp1110
a(S'@_Pony_ $AAPL makes a phone you can boil in water for 30 minutes. Who does that? There&#39;s a reason Apple has sold over 1 Billion iPhone&#39;s'
p1111
S'Bullish'
p1112
tp1113
a(S'@_Pony_ Come on Pony you still ragging on $AAPL. Yes, if you drop the phone it may break. If you plop down a $1000 4 a phone buy a cover.'
p1114
S'Bullish'
p1115
tp1116
a(S'@Thankfulness $amzn is doing what $aapl would have done had Steve Jobs still been alive. $amzn rocks!'
p1117
S'Bullish'
p1118
tp1119
a(S'@NateTheGr8 that&#39;s too rational for the irrational $AAPL fanboys.'
p1120
S'Bullish'
p1121
tp1122
a(S'The thing that magisto doesn&#39;t get or that most Bears don&#39;t get. No one has ever bought $AAPL iphone becuase it&#39;s better, they just love it'
p1123
S'Bullish'
p1124
tp1125
a(S'$AAPL $200 before eoy '
p1126
S'Bullish'
p1127
tp1128
a(S'$RXDX our members were alerted at 9:39am for this trade. Don&#39;t miss out, join today!  $SNAP $TSLA $F $YHOO $UAA'
p1129
S'Bullish'
p1130
tp1131
a(S'$TLM $BP $SHLX Great read - Once in a Lifetime Opportunity to Profit in Commodity Equities: https://investoralmanac.com/2017/09/16/once-in-an-investment-lifetime-opportunity-to-profit-in-commodities/'
p1132
S'Bullish'
p1133
tp1134
a(S'It is about time!  Only been holding since 2011!  LOL!  Poor gains, but the dividends have been delicious! $BP'
p1135
S'Bullish'
p1136
tp1137
a(S'$OAS $BP $CVX Good summary of Baron Energy and Resources Letter- long thesis for energy names: https://investoralmanac.com/2017/07/31/baron-energy-and-resources-2q17-contradictions-plaguing-the-industry-peak-demand-really/'
p1138
S'Bullish'
p1139
tp1140
a(S'$CL_F $USO $OIL $UWT $DWT $XLE $MRO $BP $VLO $HES Who was it that said oil wasn&#39;t bullish last week?'
p1141
S'Bullish'
p1142
tp1143
a(S'$BP Beautiful'
p1144
S'Bullish'
p1145
tp1146
a(S'$BP as a BP shareholder are we going to get a little taste of the spin off'
p1147
S'Bullish'
p1148
tp1149
a(S'@One_Eye_Bobby $BP I know, watching it closely. Performance has been pathetic, but the dividend has been good. Very Bullish long term.'
p1150
S'Bullish'
p1151
tp1152
a(S'Upgrades $MD $AMAT $INFY $CAT $PDS $CMPR $ARWR $COHU $BP $INST $PAH $ASML'
p1153
S'Bullish'
p1154
tp1155
a(S'$GDP $MRD $bp Fantastic summary read- Once in a Lifetime Opportunity to Invest in Energy Stocks: https://investoralmanac.com/2017/09/16/once-in-an-investment-lifetime-opportunity-to-profit-in-commodities/'
p1156
S'Bullish'
p1157
tp1158
a(S'$TLM $BP $SHLX Great read - Once in a Lifetime Opportunity to Profit in Commodity Equities: https://investoralmanac.com/2017/09/16/once-in-an-investment-lifetime-opportunity-to-profit-in-commodities/'
p1159
S'Bullish'
p1160
tp1161
a(S'It is about time!  Only been holding since 2011!  LOL!  Poor gains, but the dividends have been delicious! $BP'
p1162
S'Bullish'
p1163
tp1164
a(S'$OAS $BP $CVX Good summary of Baron Energy and Resources Letter- long thesis for energy names: https://investoralmanac.com/2017/07/31/baron-energy-and-resources-2q17-contradictions-plaguing-the-industry-peak-demand-really/'
p1165
S'Bullish'
p1166
tp1167
a(S'$PEP is in Stochastic Oversold  winning 61.54% in the past. https://goo.gl/HtppWT'
p1168
S'Bullish'
p1169
tp1170
a(S'Trade alert, 76% chance,$PEP will close above $113.59 support by end of session. Bullish. http://tradespoon.com/s.php?t=$PEP'
p1171
S'Bullish'
p1172
tp1173
a(S'Based on stats,76% chance,$PEP will close above $114.45 support by end of session. Bullish. http://tradespoon.com/s.php?t=$PEP'
p1174
S'Bullish'
p1175
tp1176
a(S'$PEP Long 171020C120 today. I like the break back up though the $115 price level'
p1177
S'Bullish'
p1178
tp1179
a(S'$DPS still trading in a range but looks to be building energy. no pos $FIZZ $KO $PEP'
p1180
S'Bullish'
p1181
tp1182
a(S'$AAPL iPhone x just another piss poor design by Apple engineers and marketed by Phil Schiller'
p1183
S'Bearish'
p1184
tp1185
a(S'$AAPL lets face it Apple is taking away all the features ppl love just like the Democrats take everyone&#39;s guns'
p1186
S'Bearish'
p1187
tp1188
a(S'$NVDA Price to cash flow is 55.3.  $AMZN is 28.3, $AAPL is 13.2, $INTC is 8.0:   http://financials.morningstar.com/valuation/price-ratio.html?t=NVDA'
p1189
S'Bearish'
p1190
tp1191
a(S'$AAPL saying their phone is worth 1000 or telling us krap is worth 1000 which is it??? What will it cost for a phone that does not break?'
p1192
S'Bearish'
p1193
tp1194
a(S'$AAPL iPhone x is missing 2 important pieces of hardware..headphn jack &amp; fingerprint sensor..nt every1 will b happy scanning faces...'
p1195
S'Bearish'
p1196
tp1197
a(S'$AAPL if you know your engineers designed a phone that breaks then you should provide the protection free of charge especially for 1000 USD'
p1198
S'Bearish'
p1199
tp1200
a(S'$AAPL for 1000 USD iPhone you should expect it to be bullet proof and not break when dropped...'
p1201
S'Bearish'
p1202
tp1203
a(S'$AAPL a dare for Timmy drop the iPhone to concrete from 2 meters 10 times per side and show the result...you know the engineers design krap'
p1204
S'Bearish'
p1205
tp1206
a(S'$AAPL as u notice not once at these iPhone events do they demonstrate phones being dropped because they know it&#39;s krap and will fail'
p1207
S'Bearish'
p1208
tp1209
a(S'$AAPL Phil Schiller only has to show to up to work one day out of the year and he really messed it up this time with iPhone X'
p1210
S'Bearish'
p1211
tp1212
a(S'$AAPL display engineer really messed up on the iPhone x display the swiping cannot be done holding phone in one hand which really suxs'
p1213
S'Bearish'
p1214
tp1215
a(S'$AAPL iPhone x another disaster product by no other than Phil Schiller congrats you can put another piece of krap on your resume loser'
p1216
S'Bearish'
p1217
tp1218
a(S'$AAPL buy quickcharge, glass back protector, wirelesscharge, applecare... Sheeple'
p1219
S'Bearish'
p1220
tp1221
a(S'$AAPL Sheesh Chinese phones are going to surpass iPhones pretty soon at this rate.'
p1222
S'Bearish'
p1223
tp1224
a(S'$AAPL waiting for breaking 158 to the downside?'
p1225
S'Bearish'
p1226
tp1227
a(S'$AAPL You think I&#39;m stupid? Lol, come at me with your garbage. Who here has shit to say? Line up. Too easy.'
p1228
S'Bearish'
p1229
tp1230
a(S'$AAPL no more subsidized phones = less sales. higher price = less sales.'
p1231
S'Bearish'
p1232
tp1233
a(S'$AXP worst place to put your money in.'
p1234
S'Bearish'
p1235
tp1236
a(S'$T betting on the down trend PT $35'
p1237
S'Bearish'
p1238
tp1239
a(S'Which is better AT&amp;T Or Verizon? \n\n$T $VZ \n\nhttp://quad7capital.com/2017/09/18/better-att-verizon/'
p1240
S'Bearish'
p1241
tp1242
a(S'$BA Stocks are like trees.....never touch the sky &amp; fall....&quot; Buffet quote....&quot;'
p1243
S'Bearish'
p1244
tp1245
a(S'$BA Top Dow Stock Boeing Nears Buy Point As Widebody Demand Picks Up ??? YA RIGHT at 8 years top high??'
p1246
S'Bearish'
p1247
tp1248
a(S'@stockbookie what do you think of this POS? $BA'
p1249
S'Bearish'
p1250
tp1251
a(S'$BA ENJOY IT NOW !! WAIT TILL THEY PULL THE RUG ON YOU ... LOL.... GOOD LUCK OLD TECHNOLOGY(MODEL T) WELCOME CSERIES (LEAN CLEAN NRG)'
p1252
S'Bearish'
p1253
tp1254
a(S'$CVX is in Shooting Star winning 100.00% in the past. https://goo.gl/dKaMQi'
p1255
S'Bearish'
p1256
tp1257
a(S'$DIS No more ESPN for me, used to tune in for sports not its political view. Might as well merge with CNN. Will short the next pop here.'
p1258
S'Bearish'
p1259
tp1260
a(S'$DIS worthless'
p1261
S'Bearish'
p1262
tp1263
a(S'$DIS AMZN buying cable channels for it&#39;s Prime service.'
p1264
S'Bearish'
p1265
tp1266
a(S'$DIS Hurricane Maria update... https://weather.com/storms/hurricane/news/hurricane-maria-lesser-antilles-northeast-caribbean-islands'
p1267
S'Bearish'
p1268
tp1269
a(S'$DIS as if DIS needed another blow... Hurricane season continues folks. Not looking good.'
p1270
S'Bearish'
p1271
tp1272
a(S'$DIS setting up for a 2% drop tomorrow.'
p1273
S'Bearish'
p1274
tp1275
a(S'$DIS no one talking DIS when discussing streaming. Ummm... that&#39;s a problem folks.'
p1276
S'Bearish'
p1277
tp1278
a(S'$GE $MRK $KO $PFE $DD $AMZN $FB $GOOG earnings are overstated\n\nhttp://www.businessinsider.com/adjusted-earnings-artificially-inflating-stock-prices-2017-9'
p1279
S'Bearish'
p1280
tp1281
a(S'$GE chart looks like crap'
p1282
S'Bearish'
p1283
tp1284
a(S'$GE PermaBulls are watching paint dry while they LOSE money for 15 years.. LT investors sorry never been the same once Welch left.'
p1285
S'Bearish'
p1286
tp1287
a(S'$GS Goldman needs to retest 200!'
p1288
S'Bearish'
p1289
tp1290
a(S'$EFX ...$HD &amp; $TGT succeeded at their main job: sales of goods. Your financial data was $EFX&#39;s only job!'
p1291
S'Bearish'
p1292
tp1293
a(S'...Furthermore, $HD &amp; $TGT succeeded at their main job: sales of goods. Your financial data was $EFX&#39;s only job!'
p1294
S'Bearish'
p1295
tp1296
a(S'$EFX No comparison to $TGT $HD. The shear volume 143m+type of data (SSNs, LIC#s, stateIDs, DoB, etc.) vs CC#s. Such an unprecedented f*ckup!'
p1297
S'Bearish'
p1298
tp1299
a(S'$IBM going to 90. guaranteed'
p1300
S'Bearish'
p1301
tp1302
a(S'$JPM If Jamie Dimon Hates It So Much, Then Why Is JPMorgan Buying Bitcoin In Europe? Investigate This Crook'
p1303
S'Bearish'
p1304
tp1305
a(S'$JPM If Jamie Dimon Hates It So Much, Why Is #JPMorgan Buying #Bitcoin In Europe?   #stock  UP  $MGTI http://www.zerohedge.com/news/2017-09-16/if-jamie-dimon-hates-it-so-much-then-why-jpmorgan-buying-bitcoin-europe'
p1306
S'Bearish'
p1307
tp1308
a(S'$JPM bashing bitcoin, terrible idea'
p1309
S'Bearish'
p1310
tp1311
a(S'$MCD is a bad investment. Too expensive. Many companies out there are cheaper and better.'
p1312
S'Bearish'
p1313
tp1314
a(S'$JUNO buyout to be announced today 4:01 PM EST mark it. Rumors has it $MCD or $WMT buying it.'
p1315
S'Bearish'
p1316
tp1317
a(S'$MCD because of hurricanes must go below150'
p1318
S'Bearish'
p1319
tp1320
a(S'@tchalaa LOL Booyah Grasshoppa yup just like $MCD $KFT $SHAK LMAO https://www.invokana.com/about-invokana/how-does-invokana-work'
p1321
S'Bearish'
p1322
tp1323
a(S'$MCD $SBUX - MCD making big push for their coffee. If they were smart, they wouldn&#39;t brand their coffee &quot;McCaf&quot; it screams white trash'
p1324
S'Bearish'
p1325
tp1326
a(S'$ORCL You guys are really betting on the wrong horse if this is your cloud play. $AMZN $MSFT and even $GOOG have them incredibly outclassed'
p1327
S'Bearish'
p1328
tp1329
a(S'$MSFT weak into close. Time for Puts...'
p1330
S'Bearish'
p1331
tp1332
a(S'$NKE ..'
p1333
S'Bearish'
p1334
tp1335
a(S'$NKE That&#39;s 70c drop from hod'
p1336
S'Bearish'
p1337
tp1338
a(S'$NKE Short everyday,easy profits'
p1339
S'Bearish'
p1340
tp1341
a(S'$PFE Too heated. Pullback needed further.'
p1342
S'Bearish'
p1343
tp1344
a(S'$TRV eyeing the Oct 20 120 puts at 2.50.  No vol on these though...probably will avoid'
p1345
S'Bearish'
p1346
tp1347
a(S'$TRV This is an f&#39;ing joke.'
p1348
S'Bearish'
p1349
tp1350
a(S'$TRV its going to 90 by next week.'
p1351
S'Bearish'
p1352
tp1353
a(S'$TRV Another downgrade and it shoots up. WS is hilarious with the fraud.'
p1354
S'Bearish'
p1355
tp1356
a(S'$TRV What kind of idiots would buy insurance calls now? Oh yea, they have billions allocated to repurchase their stock. they should'
p1357
S'Bearish'
p1358
tp1359
a(S'Which is better AT&amp;T Or Verizon? \n\n$T $VZ \n\nhttp://quad7capital.com/2017/09/18/better-att-verizon/'
p1360
S'Bearish'
p1361
tp1362
a(S'$V https://www.facebook.com/techcrunch/posts/10156022318357952'
p1363
S'Bearish'
p1364
tp1365
a(S'Weekly chart for $V has higher PE than $MA - same issues wrt $EFX impact TBD'
p1366
S'Bearish'
p1367
tp1368
a(S'$WMT 2 Reason you should be bearish on wmt. 1) Bearish Harami candle Pattern 2) RSI in over bought condition at 73'
p1369
S'Bearish'
p1370
tp1371
a(S'$JUNO buyout to be announced today 4:01 PM EST mark it. Rumors has it $MCD or $WMT buying it.'
p1372
S'Bearish'
p1373
tp1374
a(S'@blacktea $TGT the whole hiring is a smokescreen.   $AMZN $COST Wegmans and $WMT are taking all their revenue. Who buys groceries at Target?'
p1375
S'Bearish'
p1376
tp1377
a(S'75% of owners in Texas do not have flood insurance for their cars.  Lots cannot afford replacement.  $GM $F $FCAU $TM $HMC $TTM'
p1378
S'Bearish'
p1379
tp1380
a(S'$PTR: The earnings of PetroChina Company Limited (ADR) are now forecast to decline. (https://stockflare.com/stock/PTR)'
p1381
S'Bearish'
p1382
tp1383
a(S'$PTR: PetroChina Company Limited (ADR) has lost a star, now a 2 star stock. (https://stockflare.com/stock/PTR)'
p1384
S'Bearish'
p1385
tp1386
a(S'$PTR: PetroChina Company Limited (ADR) has fallen to a 2 star rating. Here is a list of its peers that are 4+ star stocks: PBR, EC. (https://stockflare.com/stock/PTR)'
p1387
S'Bearish'
p1388
tp1389
a(S'@lakers24 @virajarora $wfc have u seen how their business has been affected?'
p1390
S'Bearish'
p1391
tp1392
a(S'@virajarora $efx; they have reputational damage ala $cmg, $wfc; a new CEO doesn&#39;t change that'
p1393
S'Bearish'
p1394
tp1395
a(S'$EFX No comparison to $WFC. Only 2mil of $WFC&#39;s 70mil customers were affected. Here 143mil people screwed for life with fear of ID-theft.'
p1396
S'Bearish'
p1397
tp1398
a(S'$EFX  Novice investors have an opportunity to see what happens when you try and catch a falling knife. $APPL $GOOG  $TSLA  $BAC $MSFT  $WFC'
p1399
S'Bearish'
p1400
tp1401
a(S'@thefrankster  no comparison, only a 2mil of $WFC 70mil customers were affected. Here 143mil ppl screwed for life.'
p1402
S'Bearish'
p1403
tp1404
a(S'$WFC up. Must be because they opened up another 30 million fake accounts'
p1405
S'Bearish'
p1406
tp1407
a(S'I have to announce that $XLF and $WFC were stopped out but $XLU is still in the money (biggest short position)'
p1408
S'Bearish'
p1409
tp1410
a(S'$BABA Ayy lmao'
p1411
S'Bearish'
p1412
tp1413
a(S'$TWTR doesn&#39;t rally with the market but will get wood shedded when the market eventually gets hit. All risk, no reward.'
p1414
S'Bearish'
p1415
tp1416
a(S'$FB $AMZN \nThe Amazon Monopoly Problem: Prime Time For Antitrust Action Vs. E-Commerce Giant, Facebook, $GOOG'
p1417
S'Bearish'
p1418
tp1419
a(S'$FB $AAPL $NVDA business built on natural dopamine'
p1420
S'Bearish'
p1421
tp1422
a(S'$FB they copied MySpace and Friendster, but now Fluckerberg is a genius? Lol. This is an over bloated fat pig. $SPY $QQQ'
p1423
S'Bearish'
p1424
tp1425
a(S'$GOOG not yet'
p1426
S'Bearish'
p1427
tp1428
a(S'$FB $AMZN \nThe Amazon Monopoly Problem: Prime Time For Antitrust Action Vs. E-Commerce Giant, Facebook, $GOOG'
p1429
S'Bearish'
p1430
tp1431
a(S'$BABA $NFLX $FB $GOOG $GOOG and all the over hyped ones...'
p1432
S'Bearish'
p1433
tp1434
a(S'$GOOG $GOOGL Anyone else hear that cracking sound?  A flush below $900 and things get ugly in a hurry.'
p1435
S'Bearish'
p1436
tp1437
a(S'$AAPL iPhone x just another piss poor design by Apple engineers and marketed by Phil Schiller'
p1438
S'Bearish'
p1439
tp1440
a(S'$AAPL lets face it Apple is taking away all the features ppl love just like the Democrats take everyone&#39;s guns'
p1441
S'Bearish'
p1442
tp1443
a(S'$NVDA Price to cash flow is 55.3.  $AMZN is 28.3, $AAPL is 13.2, $INTC is 8.0:   http://financials.morningstar.com/valuation/price-ratio.html?t=NVDA'
p1444
S'Bearish'
p1445
tp1446
a(S'$AAPL saying their phone is worth 1000 or telling us krap is worth 1000 which is it??? What will it cost for a phone that does not break?'
p1447
S'Bearish'
p1448
tp1449
a(S'$AAPL iPhone x is missing 2 important pieces of hardware..headphn jack &amp; fingerprint sensor..nt every1 will b happy scanning faces...'
p1450
S'Bearish'
p1451
tp1452
a(S'$AAPL if you know your engineers designed a phone that breaks then you should provide the protection free of charge especially for 1000 USD'
p1453
S'Bearish'
p1454
tp1455
a(S'$AAPL for 1000 USD iPhone you should expect it to be bullet proof and not break when dropped...'
p1456
S'Bearish'
p1457
tp1458
a(S'$AAPL a dare for Timmy drop the iPhone to concrete from 2 meters 10 times per side and show the result...you know the engineers design krap'
p1459
S'Bearish'
p1460
tp1461
a(S'$AAPL as u notice not once at these iPhone events do they demonstrate phones being dropped because they know it&#39;s krap and will fail'
p1462
S'Bearish'
p1463
tp1464
a(S'$AAPL Phil Schiller only has to show to up to work one day out of the year and he really messed it up this time with iPhone X'
p1465
S'Bearish'
p1466
tp1467
a(S'$AAPL display engineer really messed up on the iPhone x display the swiping cannot be done holding phone in one hand which really suxs'
p1468
S'Bearish'
p1469
tp1470
a(S'$AAPL iPhone x another disaster product by no other than Phil Schiller congrats you can put another piece of krap on your resume loser'
p1471
S'Bearish'
p1472
tp1473
a(S'$AAPL buy quickcharge, glass back protector, wirelesscharge, applecare... Sheeple'
p1474
S'Bearish'
p1475
tp1476
a(S'$AAPL Sheesh Chinese phones are going to surpass iPhones pretty soon at this rate.'
p1477
S'Bearish'
p1478
tp1479
a(S'$AAPL waiting for breaking 158 to the downside?'
p1480
S'Bearish'
p1481
tp1482
a(S'$AAPL You think I&#39;m stupid? Lol, come at me with your garbage. Who here has shit to say? Line up. Too easy.'
p1483
S'Bearish'
p1484
tp1485
a(S'$AAPL no more subsidized phones = less sales. higher price = less sales.'
p1486
S'Bearish'
p1487
tp1488
a(S'$YHOO surprised people still use yahoo anymore. I blocked it from the cpu, to many racist comments visible don&#39;t want my kids reading yahoo'
p1489
S'Bearish'
p1490
tp1491
a(S'$YHOO surprised people still use yahoo anymore. I blocked it from the cpu, to many racist comments visible don&#39;t want my kids reading yahoo'
p1492
S'Bearish'
p1493
tp1494
a.