ccopy_reg
_reconstructor
p0
(cnltk.classify.naivebayes
NaiveBayesClassifier
p1
c__builtin__
object
p2
Ntp3
Rp4
(dp5
S'_labels'
p6
(lp7
S'Bearish'
p8
aS'Bullish'
p9
asS'_feature_probdist'
p10
(dp11
(g8
S'messed'
p12
tp13
g0
(cnltk.probability
ELEProbDist
p14
g2
Ntp15
Rp16
(dp17
S'_gamma'
p18
F0.5
sS'_N'
p19
I63
sS'_freqdist'
p20
cnltk.probability
FreqDist
p21
((dp22
I00
I59
sI01
I4
stp23
Rp24
sS'_bins'
p25
I2
sS'_divisor'
p26
F64.0
sbs(g8
S'far'
p27
tp28
g0
(g14
g2
Ntp29
Rp30
(dp31
g18
F0.5
sg19
I63
sg20
g21
((dp32
I00
I63
stp33
Rp34
sg25
I2
sg26
F64.0
sbs(g8
S'put'
p35
tp36
g0
(g14
g2
Ntp37
Rp38
(dp39
g18
F0.5
sg19
I63
sg20
g21
((dp40
I00
I60
sI01
I3
stp41
Rp42
sg25
I2
sg26
F64.0
sbs(g9
S'hit'
p43
tp44
g0
(g14
g2
Ntp45
Rp46
(dp47
g18
F0.5
sg19
I198
sg20
g21
((dp48
I00
I197
sI01
I1
stp49
Rp50
sg25
I2
sg26
F199.0
sbs(g8
S'slowest'
p51
tp52
g0
(g14
g2
Ntp53
Rp54
(dp55
g18
F0.5
sg19
I63
sg20
g21
((dp56
I00
I63
stp57
Rp58
sg25
I2
sg26
F64.0
sbs(g9
S'top'
p59
tp60
g0
(g14
g2
Ntp61
Rp62
(dp63
g18
F0.5
sg19
I198
sg20
g21
((dp64
I00
I197
sI01
I1
stp65
Rp66
sg25
I2
sg26
F199.0
sbs(g8
S'shoots'
p67
tp68
g0
(g14
g2
Ntp69
Rp70
(dp71
g18
F0.5
sg19
I63
sg20
g21
((dp72
I00
I63
stp73
Rp74
sg25
I1
sg26
F63.5
sbs(g9
S'incredibly'
p75
tp76
g0
(g14
g2
Ntp77
Rp78
(dp79
g18
F0.5
sg19
I198
sg20
g21
((dp80
I00
I198
stp81
Rp82
sg25
I2
sg26
F199.0
sbs(g8
S'irrelevant'
p83
tp84
g0
(g14
g2
Ntp85
Rp86
(dp87
g18
F0.5
sg19
I63
sg20
g21
((dp88
I00
I63
stp89
Rp90
sg25
I2
sg26
F64.0
sbs(g9
S'fb'
p91
tp92
g0
(g14
g2
Ntp93
Rp94
(dp95
g18
F0.5
sg19
I198
sg20
g21
((dp96
I00
I196
sI01
I2
stp97
Rp98
sg25
I2
sg26
F199.0
sbs(g8
S'heading'
p99
tp100
g0
(g14
g2
Ntp101
Rp102
(dp103
g18
F0.5
sg19
I63
sg20
g21
((dp104
I00
I63
stp105
Rp106
sg25
I1
sg26
F63.5
sbs(g8
S'being'
p107
tp108
g0
(g14
g2
Ntp109
Rp110
(dp111
g18
F0.5
sg19
I63
sg20
g21
((dp112
I00
I61
sI01
I2
stp113
Rp114
sg25
I2
sg26
F64.0
sbs(g9
S'holding'
p115
tp116
g0
(g14
g2
Ntp117
Rp118
(dp119
g18
F0.5
sg19
I198
sg20
g21
((dp120
I00
I195
sI01
I3
stp121
Rp122
sg25
I2
sg26
F199.0
sbs(g8
S'positive'
p123
tp124
g0
(g14
g2
Ntp125
Rp126
(dp127
g18
F0.5
sg19
I63
sg20
g21
((dp128
I00
I63
stp129
Rp130
sg25
I2
sg26
F64.0
sbs(g9
S'precious'
p131
tp132
g0
(g14
g2
Ntp133
Rp134
(dp135
g18
F0.5
sg19
I198
sg20
g21
((dp136
I00
I198
stp137
Rp138
sg25
I1
sg26
F198.5
sbs(g9
S'try'
p139
tp140
g0
(g14
g2
Ntp141
Rp142
(dp143
g18
F0.5
sg19
I198
sg20
g21
((dp144
I00
I197
sI01
I1
stp145
Rp146
sg25
I2
sg26
F199.0
sbs(g9
S'electric'
p147
tp148
g0
(g14
g2
Ntp149
Rp150
(dp151
g18
F0.5
sg19
I198
sg20
g21
((dp152
I00
I197
sI01
I1
stp153
Rp154
sg25
I2
sg26
F199.0
sbs(g8
S'official'
p155
tp156
g0
(g14
g2
Ntp157
Rp158
(dp159
g18
F0.5
sg19
I63
sg20
g21
((dp160
I00
I63
stp161
Rp162
sg25
I2
sg26
F64.0
sbs(g8
S'positioned'
p163
tp164
g0
(g14
g2
Ntp165
Rp166
(dp167
g18
F0.5
sg19
I63
sg20
g21
((dp168
I00
I63
stp169
Rp170
sg25
I2
sg26
F64.0
sbs(g9
S'played'
p171
tp172
g0
(g14
g2
Ntp173
Rp174
(dp175
g18
F0.5
sg19
I198
sg20
g21
((dp176
I00
I197
sI01
I1
stp177
Rp178
sg25
I2
sg26
F199.0
sbs(g8
S'here'
p179
tp180
g0
(g14
g2
Ntp181
Rp182
(dp183
g18
F0.5
sg19
I63
sg20
g21
((dp184
I00
I62
sI01
I1
stp185
Rp186
sg25
I2
sg26
F64.0
sbs(g8
S'candle'
p187
tp188
g0
(g14
g2
Ntp189
Rp190
(dp191
g18
F0.5
sg19
I63
sg20
g21
((dp192
I00
I62
sI01
I1
stp193
Rp194
sg25
I2
sg26
F64.0
sbs(g8
S'based'
p195
tp196
g0
(g14
g2
Ntp197
Rp198
(dp199
g18
F0.5
sg19
I63
sg20
g21
((dp200
I00
I63
stp201
Rp202
sg25
I1
sg26
F63.5
sbs(g8
S'face'
p203
tp204
g0
(g14
g2
Ntp205
Rp206
(dp207
g18
F0.5
sg19
I63
sg20
g21
((dp208
I00
I61
sI01
I2
stp209
Rp210
sg25
I2
sg26
F64.0
sbs(g9
S'considering'
p211
tp212
g0
(g14
g2
Ntp213
Rp214
(dp215
g18
F0.5
sg19
I198
sg20
g21
((dp216
I00
I198
stp217
Rp218
sg25
I1
sg26
F198.5
sbs(g9
S'minimal'
p219
tp220
g0
(g14
g2
Ntp221
Rp222
(dp223
g18
F0.5
sg19
I198
sg20
g21
((dp224
I00
I197
sI01
I1
stp225
Rp226
sg25
I2
sg26
F199.0
sbs(g8
g171
tp227
g0
(g14
g2
Ntp228
Rp229
(dp230
g18
F0.5
sg19
I63
sg20
g21
((dp231
I00
I63
stp232
Rp233
sg25
I2
sg26
F64.0
sbs(g8
S'building'
p234
tp235
g0
(g14
g2
Ntp236
Rp237
(dp238
g18
F0.5
sg19
I63
sg20
g21
((dp239
I00
I63
stp240
Rp241
sg25
I2
sg26
F64.0
sbs(g8
S'continue'
p242
tp243
g0
(g14
g2
Ntp244
Rp245
(dp246
g18
F0.5
sg19
I63
sg20
g21
((dp247
I00
I63
stp248
Rp249
sg25
I2
sg26
F64.0
sbs(g8
S'achieve'
p250
tp251
g0
(g14
g2
Ntp252
Rp253
(dp254
g18
F0.5
sg19
I63
sg20
g21
((dp255
I00
I63
stp256
Rp257
sg25
I2
sg26
F64.0
sbs(g9
S'watching'
p258
tp259
g0
(g14
g2
Ntp260
Rp261
(dp262
g18
F0.5
sg19
I198
sg20
g21
((dp263
I00
I194
sI01
I4
stp264
Rp265
sg25
I2
sg26
F199.0
sbs(g8
S'outclassed'
p266
tp267
g0
(g14
g2
Ntp268
Rp269
(dp270
g18
F0.5
sg19
I63
sg20
g21
((dp271
I00
I62
sI01
I1
stp272
Rp273
sg25
I2
sg26
F64.0
sbs(g8
S'occur'
p274
tp275
g0
(g14
g2
Ntp276
Rp277
(dp278
g18
F0.5
sg19
I63
sg20
g21
((dp279
I00
I63
stp280
Rp281
sg25
I2
sg26
F64.0
sbs(g9
S'flopping'
p282
tp283
g0
(g14
g2
Ntp284
Rp285
(dp286
g18
F0.5
sg19
I198
sg20
g21
((dp287
I00
I196
sI01
I2
stp288
Rp289
sg25
I2
sg26
F199.0
sbs(g8
S'possible'
p290
tp291
g0
(g14
g2
Ntp292
Rp293
(dp294
g18
F0.5
sg19
I63
sg20
g21
((dp295
I00
I63
stp296
Rp297
sg25
I2
sg26
F64.0
sbs(g9
g83
tp298
g0
(g14
g2
Ntp299
Rp300
(dp301
g18
F0.5
sg19
I198
sg20
g21
((dp302
I00
I197
sI01
I1
stp303
Rp304
sg25
I2
sg26
F199.0
sbs(g9
S'closes'
p305
tp306
g0
(g14
g2
Ntp307
Rp308
(dp309
g18
F0.5
sg19
I198
sg20
g21
((dp310
I00
I197
sI01
I1
stp311
Rp312
sg25
I2
sg26
F199.0
sbs(g8
g139
tp313
g0
(g14
g2
Ntp314
Rp315
(dp316
g18
F0.5
sg19
I63
sg20
g21
((dp317
I00
I62
sI01
I1
stp318
Rp319
sg25
I2
sg26
F64.0
sbs(g8
S'afford'
p320
tp321
g0
(g14
g2
Ntp322
Rp323
(dp324
g18
F0.5
sg19
I63
sg20
g21
((dp325
I00
I62
sI01
I1
stp326
Rp327
sg25
I2
sg26
F64.0
sbs(g9
S'reading'
p328
tp329
g0
(g14
g2
Ntp330
Rp331
(dp332
g18
F0.5
sg19
I198
sg20
g21
((dp333
I00
I198
stp334
Rp335
sg25
I2
sg26
F199.0
sbs(g9
S'sells'
p336
tp337
g0
(g14
g2
Ntp338
Rp339
(dp340
g18
F0.5
sg19
I198
sg20
g21
((dp341
I00
I197
sI01
I1
stp342
Rp343
sg25
I2
sg26
F199.0
sbs(g9
S'trimmed'
p344
tp345
g0
(g14
g2
Ntp346
Rp347
(dp348
g18
F0.5
sg19
I198
sg20
g21
((dp349
I00
I198
stp350
Rp351
sg25
I1
sg26
F198.5
sbs(g9
g179
tp352
g0
(g14
g2
Ntp353
Rp354
(dp355
g18
F0.5
sg19
I198
sg20
g21
((dp356
I00
I192
sI01
I6
stp357
Rp358
sg25
I2
sg26
F199.0
sbs(g8
S'use'
p359
tp360
g0
(g14
g2
Ntp361
Rp362
(dp363
g18
F0.5
sg19
I63
sg20
g21
((dp364
I00
I62
sI01
I1
stp365
Rp366
sg25
I2
sg26
F64.0
sbs(g9
S'doing'
p367
tp368
g0
(g14
g2
Ntp369
Rp370
(dp371
g18
F0.5
sg19
I198
sg20
g21
((dp372
I00
I196
sI01
I2
stp373
Rp374
sg25
I2
sg26
F199.0
sbs(g8
S'screwed'
p375
tp376
g0
(g14
g2
Ntp377
Rp378
(dp379
g18
F0.5
sg19
I63
sg20
g21
((dp380
I00
I62
sI01
I1
stp381
Rp382
sg25
I2
sg26
F64.0
sbs(g8
S'talking'
p383
tp384
g0
(g14
g2
Ntp385
Rp386
(dp387
g18
F0.5
sg19
I63
sg20
g21
((dp388
I00
I63
stp389
Rp390
sg25
I2
sg26
F64.0
sbs(g9
S'dips'
p391
tp392
g0
(g14
g2
Ntp393
Rp394
(dp395
g18
F0.5
sg19
I198
sg20
g21
((dp396
I00
I196
sI01
I2
stp397
Rp398
sg25
I2
sg26
F199.0
sbs(g8
S'low'
p399
tp400
g0
(g14
g2
Ntp401
Rp402
(dp403
g18
F0.5
sg19
I63
sg20
g21
((dp404
I00
I63
stp405
Rp406
sg25
I2
sg26
F64.0
sbs(g8
S'anymore'
p407
tp408
g0
(g14
g2
Ntp409
Rp410
(dp411
g18
F0.5
sg19
I63
sg20
g21
((dp412
I00
I62
sI01
I1
stp413
Rp414
sg25
I2
sg26
F64.0
sbs(g9
S'faces'
p415
tp416
g0
(g14
g2
Ntp417
Rp418
(dp419
g18
F0.5
sg19
I198
sg20
g21
((dp420
I00
I198
stp421
Rp422
sg25
I2
sg26
F199.0
sbs(g9
S'retest'
p423
tp424
g0
(g14
g2
Ntp425
Rp426
(dp427
g18
F0.5
sg19
I198
sg20
g21
((dp428
I00
I198
stp429
Rp430
sg25
I2
sg26
F199.0
sbs(g8
S'sweet'
p431
tp432
g0
(g14
g2
Ntp433
Rp434
(dp435
g18
F0.5
sg19
I63
sg20
g21
((dp436
I00
I63
stp437
Rp438
sg25
I1
sg26
F63.5
sbs(g8
S'out'
p439
tp440
g0
(g14
g2
Ntp441
Rp442
(dp443
g18
F0.5
sg19
I63
sg20
g21
((dp444
I00
I60
sI01
I3
stp445
Rp446
sg25
I2
sg26
F64.0
sbs(g9
S'saying'
p447
tp448
g0
(g14
g2
Ntp449
Rp450
(dp451
g18
F0.5
sg19
I198
sg20
g21
((dp452
I00
I198
stp453
Rp454
sg25
I2
sg26
F199.0
sbs(g8
S'exactly'
p455
tp456
g0
(g14
g2
Ntp457
Rp458
(dp459
g18
F0.5
sg19
I63
sg20
g21
((dp460
I00
I63
stp461
Rp462
sg25
I2
sg26
F64.0
sbs(g9
S'r'
p463
tp464
g0
(g14
g2
Ntp465
Rp466
(dp467
g18
F0.5
sg19
I198
sg20
g21
((dp468
I00
I198
stp469
Rp470
sg25
I1
sg26
F198.5
sbs(g8
S'orlando'
p471
tp472
g0
(g14
g2
Ntp473
Rp474
(dp475
g18
F0.5
sg19
I63
sg20
g21
((dp476
I00
I63
stp477
Rp478
sg25
I1
sg26
F63.5
sbs(g9
S'showing'
p479
tp480
g0
(g14
g2
Ntp481
Rp482
(dp483
g18
F0.5
sg19
I198
sg20
g21
((dp484
I00
I197
sI01
I1
stp485
Rp486
sg25
I2
sg26
F199.0
sbs(g8
S'begin'
p487
tp488
g0
(g14
g2
Ntp489
Rp490
(dp491
g18
F0.5
sg19
I63
sg20
g21
((dp492
I00
I63
stp493
Rp494
sg25
I2
sg26
F64.0
sbs(g8
g423
tp495
g0
(g14
g2
Ntp496
Rp497
(dp498
g18
F0.5
sg19
I63
sg20
g21
((dp499
I00
I62
sI01
I1
stp500
Rp501
sg25
I2
sg26
F64.0
sbs(g8
S'reiterates'
p502
tp503
g0
(g14
g2
Ntp504
Rp505
(dp506
g18
F0.5
sg19
I63
sg20
g21
((dp507
I00
I63
stp508
Rp509
sg25
I2
sg26
F64.0
sbs(g9
S'fair'
p510
tp511
g0
(g14
g2
Ntp512
Rp513
(dp514
g18
F0.5
sg19
I198
sg20
g21
((dp515
I00
I197
sI01
I1
stp516
Rp517
sg25
I2
sg26
F199.0
sbs(g9
S'super'
p518
tp519
g0
(g14
g2
Ntp520
Rp521
(dp522
g18
F0.5
sg19
I198
sg20
g21
((dp523
I00
I197
sI01
I1
stp524
Rp525
sg25
I2
sg26
F199.0
sbs(g9
S'make'
p526
tp527
g0
(g14
g2
Ntp528
Rp529
(dp530
g18
F0.5
sg19
I198
sg20
g21
((dp531
I00
I196
sI01
I2
stp532
Rp533
sg25
I2
sg26
F199.0
sbs(g9
S'once'
p534
tp535
g0
(g14
g2
Ntp536
Rp537
(dp538
g18
F0.5
sg19
I198
sg20
g21
((dp539
I00
I198
stp540
Rp541
sg25
I2
sg26
F199.0
sbs(g9
S'//financials.morningstar.com/valuation/price-ratio.html'
p542
tp543
g0
(g14
g2
Ntp544
Rp545
(dp546
g18
F0.5
sg19
I198
sg20
g21
((dp547
I00
I198
stp548
Rp549
sg25
I2
sg26
F199.0
sbs(g9
S'ago'
p550
tp551
g0
(g14
g2
Ntp552
Rp553
(dp554
g18
F0.5
sg19
I198
sg20
g21
((dp555
I00
I196
sI01
I2
stp556
Rp557
sg25
I2
sg26
F199.0
sbs(g8
S'bring'
p558
tp559
g0
(g14
g2
Ntp560
Rp561
(dp562
g18
F0.5
sg19
I63
sg20
g21
((dp563
I00
I63
stp564
Rp565
sg25
I2
sg26
F64.0
sbs(g9
S'major'
p566
tp567
g0
(g14
g2
Ntp568
Rp569
(dp570
g18
F0.5
sg19
I198
sg20
g21
((dp571
I00
I197
sI01
I1
stp572
Rp573
sg25
I2
sg26
F199.0
sbs(g9
S'fail'
p574
tp575
g0
(g14
g2
Ntp576
Rp577
(dp578
g18
F0.5
sg19
I198
sg20
g21
((dp579
I00
I197
sI01
I1
stp580
Rp581
sg25
I2
sg26
F199.0
sbs(g8
g566
tp582
g0
(g14
g2
Ntp583
Rp584
(dp585
g18
F0.5
sg19
I63
sg20
g21
((dp586
I00
I63
stp587
Rp588
sg25
I2
sg26
F64.0
sbs(g8
S'boil'
p589
tp590
g0
(g14
g2
Ntp591
Rp592
(dp593
g18
F0.5
sg19
I63
sg20
g21
((dp594
I00
I63
stp595
Rp596
sg25
I2
sg26
F64.0
sbs(g8
g542
tp597
g0
(g14
g2
Ntp598
Rp599
(dp600
g18
F0.5
sg19
I63
sg20
g21
((dp601
I00
I61
sI01
I2
stp602
Rp603
sg25
I2
sg26
F64.0
sbs(g8
S'profitable'
p604
tp605
g0
(g14
g2
Ntp606
Rp607
(dp608
g18
F0.5
sg19
I63
sg20
g21
((dp609
I00
I63
stp610
Rp611
sg25
I1
sg26
F63.5
sbs(g8
S'failing'
p612
tp613
g0
(g14
g2
Ntp614
Rp615
(dp616
g18
F0.5
sg19
I63
sg20
g21
((dp617
I00
I63
stp618
Rp619
sg25
I2
sg26
F64.0
sbs(g8
S'flat'
p620
tp621
g0
(g14
g2
Ntp622
Rp623
(dp624
g18
F0.5
sg19
I63
sg20
g21
((dp625
I00
I63
stp626
Rp627
sg25
I2
sg26
F64.0
sbs(g9
S'pump'
p628
tp629
g0
(g14
g2
Ntp630
Rp631
(dp632
g18
F0.5
sg19
I198
sg20
g21
((dp633
I00
I197
sI01
I1
stp634
Rp635
sg25
I2
sg26
F199.0
sbs(g9
S'less'
p636
tp637
g0
(g14
g2
Ntp638
Rp639
(dp640
g18
F0.5
sg19
I198
sg20
g21
((dp641
I00
I197
sI01
I1
stp642
Rp643
sg25
I2
sg26
F199.0
sbs(g9
g27
tp644
g0
(g14
g2
Ntp645
Rp646
(dp647
g18
F0.5
sg19
I198
sg20
g21
((dp648
I00
I197
sI01
I1
stp649
Rp650
sg25
I2
sg26
F199.0
sbs(g8
g344
tp651
g0
(g14
g2
Ntp652
Rp653
(dp654
g18
F0.5
sg19
I63
sg20
g21
((dp655
I00
I63
stp656
Rp657
sg25
I1
sg26
F63.5
sbs(g9
S'winning'
p658
tp659
g0
(g14
g2
Ntp660
Rp661
(dp662
g18
F0.5
sg19
I198
sg20
g21
((dp663
I00
I195
sI01
I3
stp664
Rp665
sg25
I2
sg26
F199.0
sbs(g9
S'over'
p666
tp667
g0
(g14
g2
Ntp668
Rp669
(dp670
g18
F0.5
sg19
I198
sg20
g21
((dp671
I00
I192
sI01
I6
stp672
Rp673
sg25
I2
sg26
F199.0
sbs(g9
S'using'
p674
tp675
g0
(g14
g2
Ntp676
Rp677
(dp678
g18
F0.5
sg19
I198
sg20
g21
((dp679
I00
I197
sI01
I1
stp680
Rp681
sg25
I2
sg26
F199.0
sbs(g9
S'reputational'
p682
tp683
g0
(g14
g2
Ntp684
Rp685
(dp686
g18
F0.5
sg19
I198
sg20
g21
((dp687
I00
I198
stp688
Rp689
sg25
I2
sg26
F199.0
sbs(g8
S'normal'
p690
tp691
g0
(g14
g2
Ntp692
Rp693
(dp694
g18
F0.5
sg19
I63
sg20
g21
((dp695
I00
I63
stp696
Rp697
sg25
I2
sg26
F64.0
sbs(g8
g91
tp698
g0
(g14
g2
Ntp699
Rp700
(dp701
g18
F0.5
sg19
I63
sg20
g21
((dp702
I00
I63
stp703
Rp704
sg25
I2
sg26
F64.0
sbs(g8
S'check'
p705
tp706
g0
(g14
g2
Ntp707
Rp708
(dp709
g18
F0.5
sg19
I63
sg20
g21
((dp710
I00
I63
stp711
Rp712
sg25
I2
sg26
F64.0
sbs(g8
S'monthly'
p713
tp714
g0
(g14
g2
Ntp715
Rp716
(dp717
g18
F0.5
sg19
I63
sg20
g21
((dp718
I00
I63
stp719
Rp720
sg25
I2
sg26
F64.0
sbs(g8
S'announced'
p721
tp722
g0
(g14
g2
Ntp723
Rp724
(dp725
g18
F0.5
sg19
I63
sg20
g21
((dp726
I00
I61
sI01
I2
stp727
Rp728
sg25
I2
sg26
F64.0
sbs(g9
S'//www.linkedin.com/pulse/100-per-barrel-10-reasons-make-you-think-its-closer-than-pertini'
p729
tp730
g0
(g14
g2
Ntp731
Rp732
(dp733
g18
F0.5
sg19
I198
sg20
g21
((dp734
I00
I197
sI01
I1
stp735
Rp736
sg25
I2
sg26
F199.0
sbs(g8
S'recent'
p737
tp738
g0
(g14
g2
Ntp739
Rp740
(dp741
g18
F0.5
sg19
I63
sg20
g21
((dp742
I00
I63
stp743
Rp744
sg25
I2
sg26
F64.0
sbs(g8
S'opposed'
p745
tp746
g0
(g14
g2
Ntp747
Rp748
(dp749
g18
F0.5
sg19
I63
sg20
g21
((dp750
I00
I63
stp751
Rp752
sg25
I1
sg26
F63.5
sbs(g9
S'opened'
p753
tp754
g0
(g14
g2
Ntp755
Rp756
(dp757
g18
F0.5
sg19
I198
sg20
g21
((dp758
I00
I197
sI01
I1
stp759
Rp760
sg25
I2
sg26
F199.0
sbs(g9
S'galore'
p761
tp762
g0
(g14
g2
Ntp763
Rp764
(dp765
g18
F0.5
sg19
I198
sg20
g21
((dp766
I00
I197
sI01
I1
stp767
Rp768
sg25
I2
sg26
F199.0
sbs(g9
S'fallen'
p769
tp770
g0
(g14
g2
Ntp771
Rp772
(dp773
g18
F0.5
sg19
I198
sg20
g21
((dp774
I00
I198
stp775
Rp776
sg25
I2
sg26
F199.0
sbs(g8
S'accumulate'
p777
tp778
g0
(g14
g2
Ntp779
Rp780
(dp781
g18
F0.5
sg19
I63
sg20
g21
((dp782
I00
I63
stp783
Rp784
sg25
I1
sg26
F63.5
sbs(g9
S'bought'
p785
tp786
g0
(g14
g2
Ntp787
Rp788
(dp789
g18
F0.5
sg19
I198
sg20
g21
((dp790
I00
I196
sI01
I2
stp791
Rp792
sg25
I2
sg26
F199.0
sbs(g8
S'setting'
p793
tp794
g0
(g14
g2
Ntp795
Rp796
(dp797
g18
F0.5
sg19
I63
sg20
g21
((dp798
I00
I63
stp799
Rp800
sg25
I2
sg26
F64.0
sbs(g9
S'know'
p801
tp802
g0
(g14
g2
Ntp803
Rp804
(dp805
g18
F0.5
sg19
I198
sg20
g21
((dp806
I00
I197
sI01
I1
stp807
Rp808
sg25
I2
sg26
F199.0
sbs(g8
S'half-assed'
p809
tp810
g0
(g14
g2
Ntp811
Rp812
(dp813
g18
F0.5
sg19
I63
sg20
g21
((dp814
I00
I63
stp815
Rp816
sg25
I2
sg26
F64.0
sbs(g9
S'damn'
p817
tp818
g0
(g14
g2
Ntp819
Rp820
(dp821
g18
F0.5
sg19
I198
sg20
g21
((dp822
I00
I196
sI01
I2
stp823
Rp824
sg25
I2
sg26
F199.0
sbs(g9
S'demonstrate'
p825
tp826
g0
(g14
g2
Ntp827
Rp828
(dp829
g18
F0.5
sg19
I198
sg20
g21
((dp830
I00
I198
stp831
Rp832
sg25
I2
sg26
F199.0
sbs(g9
S'add'
p833
tp834
g0
(g14
g2
Ntp835
Rp836
(dp837
g18
F0.5
sg19
I198
sg20
g21
((dp838
I00
I197
sI01
I1
stp839
Rp840
sg25
I2
sg26
F199.0
sbs(g9
S'not'
p841
tp842
g0
(g14
g2
Ntp843
Rp844
(dp845
g18
F0.5
sg19
I198
sg20
g21
((dp846
I00
I195
sI01
I3
stp847
Rp848
sg25
I2
sg26
F199.0
sbs(g8
S'stocking'
p849
tp850
g0
(g14
g2
Ntp851
Rp852
(dp853
g18
F0.5
sg19
I63
sg20
g21
((dp854
I00
I63
stp855
Rp856
sg25
I1
sg26
F63.5
sbs(g8
S'guessing'
p857
tp858
g0
(g14
g2
Ntp859
Rp860
(dp861
g18
F0.5
sg19
I63
sg20
g21
((dp862
I00
I63
stp863
Rp864
sg25
I2
sg26
F64.0
sbs(g9
S'say'
p865
tp866
g0
(g14
g2
Ntp867
Rp868
(dp869
g18
F0.5
sg19
I198
sg20
g21
((dp870
I00
I197
sI01
I1
stp871
Rp872
sg25
I2
sg26
F199.0
sbs(g9
S'break-out'
p873
tp874
g0
(g14
g2
Ntp875
Rp876
(dp877
g18
F0.5
sg19
I198
sg20
g21
((dp878
I00
I197
sI01
I1
stp879
Rp880
sg25
I2
sg26
F199.0
sbs(g8
S'amp'
p881
tp882
g0
(g14
g2
Ntp883
Rp884
(dp885
g18
F0.5
sg19
I63
sg20
g21
((dp886
I00
I61
sI01
I2
stp887
Rp888
sg25
I2
sg26
F64.0
sbs(g8
S'off'
p889
tp890
g0
(g14
g2
Ntp891
Rp892
(dp893
g18
F0.5
sg19
I63
sg20
g21
((dp894
I00
I63
stp895
Rp896
sg25
I2
sg26
F64.0
sbs(g8
S'looks'
p897
tp898
g0
(g14
g2
Ntp899
Rp900
(dp901
g18
F0.5
sg19
I63
sg20
g21
((dp902
I00
I62
sI01
I1
stp903
Rp904
sg25
I2
sg26
F64.0
sbs(g9
S'making'
p905
tp906
g0
(g14
g2
Ntp907
Rp908
(dp909
g18
F0.5
sg19
I198
sg20
g21
((dp910
I00
I195
sI01
I3
stp911
Rp912
sg25
I2
sg26
F199.0
sbs(g9
g266
tp913
g0
(g14
g2
Ntp914
Rp915
(dp916
g18
F0.5
sg19
I198
sg20
g21
((dp917
I00
I198
stp918
Rp919
sg25
I2
sg26
F199.0
sbs(g8
S'bashing'
p920
tp921
g0
(g14
g2
Ntp922
Rp923
(dp924
g18
F0.5
sg19
I63
sg20
g21
((dp925
I00
I62
sI01
I1
stp926
Rp927
sg25
I2
sg26
F64.0
sbs(g9
S'v'
p928
tp929
g0
(g14
g2
Ntp930
Rp931
(dp932
g18
F0.5
sg19
I198
sg20
g21
((dp933
I00
I197
sI01
I1
stp934
Rp935
sg25
I2
sg26
F199.0
sbs(g8
S'enjoy'
p936
tp937
g0
(g14
g2
Ntp938
Rp939
(dp940
g18
F0.5
sg19
I63
sg20
g21
((dp941
I00
I63
stp942
Rp943
sg25
I1
sg26
F63.5
sbs(g9
S'soon'
p944
tp945
g0
(g14
g2
Ntp946
Rp947
(dp948
g18
F0.5
sg19
I198
sg20
g21
((dp949
I00
I197
sI01
I1
stp950
Rp951
sg25
I2
sg26
F199.0
sbs(g9
S'makes'
p952
tp953
g0
(g14
g2
Ntp954
Rp955
(dp956
g18
F0.5
sg19
I198
sg20
g21
((dp957
I00
I196
sI01
I2
stp958
Rp959
sg25
I2
sg26
F199.0
sbs(g9
S'shooting'
p960
tp961
g0
(g14
g2
Ntp962
Rp963
(dp964
g18
F0.5
sg19
I198
sg20
g21
((dp965
I00
I195
sI01
I3
stp966
Rp967
sg25
I2
sg26
F199.0
sbs(g9
S'needed'
p968
tp969
g0
(g14
g2
Ntp970
Rp971
(dp972
g18
F0.5
sg19
I198
sg20
g21
((dp973
I00
I198
stp974
Rp975
sg25
I2
sg26
F199.0
sbs(g9
S'signaled'
p976
tp977
g0
(g14
g2
Ntp978
Rp979
(dp980
g18
F0.5
sg19
I198
sg20
g21
((dp981
I00
I197
sI01
I1
stp982
Rp983
sg25
I2
sg26
F199.0
sbs(g9
S'then'
p984
tp985
g0
(g14
g2
Ntp986
Rp987
(dp988
g18
F0.5
sg19
I198
sg20
g21
((dp989
I00
I193
sI01
I5
stp990
Rp991
sg25
I2
sg26
F199.0
sbs(g8
S'//www.barrons.com/articles/wall-streets-real-earnings-surprises-1505533909'
p992
tp993
g0
(g14
g2
Ntp994
Rp995
(dp996
g18
F0.5
sg19
I63
sg20
g21
((dp997
I00
I63
stp998
Rp999
sg25
I2
sg26
F64.0
sbs(g8
S'decline'
p1000
tp1001
g0
(g14
g2
Ntp1002
Rp1003
(dp1004
g18
F0.5
sg19
I63
sg20
g21
((dp1005
I00
I62
sI01
I1
stp1006
Rp1007
sg25
I2
sg26
F64.0
sbs(g8
S'unleash'
p1008
tp1009
g0
(g14
g2
Ntp1010
Rp1011
(dp1012
g18
F0.5
sg19
I63
sg20
g21
((dp1013
I00
I63
stp1014
Rp1015
sg25
I2
sg26
F64.0
sbs(g8
S'hilarious'
p1016
tp1017
g0
(g14
g2
Ntp1018
Rp1019
(dp1020
g18
F0.5
sg19
I63
sg20
g21
((dp1021
I00
I63
stp1022
Rp1023
sg25
I1
sg26
F63.5
sbs(g8
S'stocked'
p1024
tp1025
g0
(g14
g2
Ntp1026
Rp1027
(dp1028
g18
F0.5
sg19
I63
sg20
g21
((dp1029
I00
I63
stp1030
Rp1031
sg25
I2
sg26
F64.0
sbs(g9
S'nicely'
p1032
tp1033
g0
(g14
g2
Ntp1034
Rp1035
(dp1036
g18
F0.5
sg19
I198
sg20
g21
((dp1037
I00
I197
sI01
I1
stp1038
Rp1039
sg25
I2
sg26
F199.0
sbs(g8
S'b'
p1040
tp1041
g0
(g14
g2
Ntp1042
Rp1043
(dp1044
g18
F0.5
sg19
I63
sg20
g21
((dp1045
I00
I62
sI01
I1
stp1046
Rp1047
sg25
I2
sg26
F64.0
sbs(g9
g455
tp1048
g0
(g14
g2
Ntp1049
Rp1050
(dp1051
g18
F0.5
sg19
I198
sg20
g21
((dp1052
I00
I197
sI01
I1
stp1053
Rp1054
sg25
I2
sg26
F199.0
sbs(g8
S'easier/better'
p1055
tp1056
g0
(g14
g2
Ntp1057
Rp1058
(dp1059
g18
F0.5
sg19
I63
sg20
g21
((dp1060
I00
I63
stp1061
Rp1062
sg25
I2
sg26
F64.0
sbs(g8
S'cheaper'
p1063
tp1064
g0
(g14
g2
Ntp1065
Rp1066
(dp1067
g18
F0.5
sg19
I63
sg20
g21
((dp1068
I00
I62
sI01
I1
stp1069
Rp1070
sg25
I2
sg26
F64.0
sbs(g8
g833
tp1071
g0
(g14
g2
Ntp1072
Rp1073
(dp1074
g18
F0.5
sg19
I63
sg20
g21
((dp1075
I00
I63
stp1076
Rp1077
sg25
I2
sg26
F64.0
sbs(g9
S'buying'
p1078
tp1079
g0
(g14
g2
Ntp1080
Rp1081
(dp1082
g18
F0.5
sg19
I198
sg20
g21
((dp1083
I00
I194
sI01
I4
stp1084
Rp1085
sg25
I2
sg26
F199.0
sbs(g8
S'damned'
p1086
tp1087
g0
(g14
g2
Ntp1088
Rp1089
(dp1090
g18
F0.5
sg19
I63
sg20
g21
((dp1091
I00
I63
stp1092
Rp1093
sg25
I2
sg26
F64.0
sbs(g9
S'rational'
p1094
tp1095
g0
(g14
g2
Ntp1096
Rp1097
(dp1098
g18
F0.5
sg19
I198
sg20
g21
((dp1099
I00
I197
sI01
I1
stp1100
Rp1101
sg25
I2
sg26
F199.0
sbs(g9
S'crawling'
p1102
tp1103
g0
(g14
g2
Ntp1104
Rp1105
(dp1106
g18
F0.5
sg19
I198
sg20
g21
((dp1107
I00
I197
sI01
I1
stp1108
Rp1109
sg25
I2
sg26
F199.0
sbs(g9
g721
tp1110
g0
(g14
g2
Ntp1111
Rp1112
(dp1113
g18
F0.5
sg19
I198
sg20
g21
((dp1114
I00
I198
stp1115
Rp1116
sg25
I2
sg26
F199.0
sbs(g8
g391
tp1117
g0
(g14
g2
Ntp1118
Rp1119
(dp1120
g18
F0.5
sg19
I63
sg20
g21
((dp1121
I00
I63
stp1122
Rp1123
sg25
I2
sg26
F64.0
sbs(g8
S'drop'
p1124
tp1125
g0
(g14
g2
Ntp1126
Rp1127
(dp1128
g18
F0.5
sg19
I63
sg20
g21
((dp1129
I00
I61
sI01
I2
stp1130
Rp1131
sg25
I2
sg26
F64.0
sbs(g8
S'thus'
p1132
tp1133
g0
(g14
g2
Ntp1134
Rp1135
(dp1136
g18
F0.5
sg19
I63
sg20
g21
((dp1137
I00
I63
stp1138
Rp1139
sg25
I1
sg26
F63.5
sbs(g9
S'live'
p1140
tp1141
g0
(g14
g2
Ntp1142
Rp1143
(dp1144
g18
F0.5
sg19
I198
sg20
g21
((dp1145
I00
I197
sI01
I1
stp1146
Rp1147
sg25
I2
sg26
F199.0
sbs(g8
S'bearish'
p1148
tp1149
g0
(g14
g2
Ntp1150
Rp1151
(dp1152
g18
F0.5
sg19
I63
sg20
g21
((dp1153
I00
I62
sI01
I1
stp1154
Rp1155
sg25
I2
sg26
F64.0
sbs(g9
S'..never'
p1156
tp1157
g0
(g14
g2
Ntp1158
Rp1159
(dp1160
g18
F0.5
sg19
I198
sg20
g21
((dp1161
I00
I197
sI01
I1
stp1162
Rp1163
sg25
I2
sg26
F199.0
sbs(g9
S'lost'
p1164
tp1165
g0
(g14
g2
Ntp1166
Rp1167
(dp1168
g18
F0.5
sg19
I198
sg20
g21
((dp1169
I00
I198
stp1170
Rp1171
sg25
I2
sg26
F199.0
sbs(g9
S'note'
p1172
tp1173
g0
(g14
g2
Ntp1174
Rp1175
(dp1176
g18
F0.5
sg19
I198
sg20
g21
((dp1177
I00
I197
sI01
I1
stp1178
Rp1179
sg25
I2
sg26
F199.0
sbs(g9
S'own'
p1180
tp1181
g0
(g14
g2
Ntp1182
Rp1183
(dp1184
g18
F0.5
sg19
I198
sg20
g21
((dp1185
I00
I196
sI01
I2
stp1186
Rp1187
sg25
I2
sg26
F199.0
sbs(g8
g968
tp1188
g0
(g14
g2
Ntp1189
Rp1190
(dp1191
g18
F0.5
sg19
I63
sg20
g21
((dp1192
I00
I62
sI01
I1
stp1193
Rp1194
sg25
I2
sg26
F64.0
sbs(g8
g769
tp1195
g0
(g14
g2
Ntp1196
Rp1197
(dp1198
g18
F0.5
sg19
I63
sg20
g21
((dp1199
I00
I62
sI01
I1
stp1200
Rp1201
sg25
I2
sg26
F64.0
sbs(g8
g1156
tp1202
g0
(g14
g2
Ntp1203
Rp1204
(dp1205
g18
F0.5
sg19
I63
sg20
g21
((dp1206
I00
I62
sI01
I1
stp1207
Rp1208
sg25
I2
sg26
F64.0
sbs(g9
S'delicious'
p1209
tp1210
g0
(g14
g2
Ntp1211
Rp1212
(dp1213
g18
F0.5
sg19
I198
sg20
g21
((dp1214
I00
I197
sI01
I1
stp1215
Rp1216
sg25
I2
sg26
F199.0
sbs(g9
g51
tp1217
g0
(g14
g2
Ntp1218
Rp1219
(dp1220
g18
F0.5
sg19
I198
sg20
g21
((dp1221
I00
I197
sI01
I1
stp1222
Rp1223
sg25
I2
sg26
F199.0
sbs(g8
S'shady'
p1224
tp1225
g0
(g14
g2
Ntp1226
Rp1227
(dp1228
g18
F0.5
sg19
I63
sg20
g21
((dp1229
I00
I63
stp1230
Rp1231
sg25
I2
sg26
F64.0
sbs(g8
S'wants'
p1232
tp1233
g0
(g14
g2
Ntp1234
Rp1235
(dp1236
g18
F0.5
sg19
I63
sg20
g21
((dp1237
I00
I63
stp1238
Rp1239
sg25
I2
sg26
F64.0
sbs(g8
S'entire'
p1240
tp1241
g0
(g14
g2
Ntp1242
Rp1243
(dp1244
g18
F0.5
sg19
I63
sg20
g21
((dp1245
I00
I63
stp1246
Rp1247
sg25
I2
sg26
F64.0
sbs(g8
S'had'
p1248
tp1249
g0
(g14
g2
Ntp1250
Rp1251
(dp1252
g18
F0.5
sg19
I63
sg20
g21
((dp1253
I00
I63
stp1254
Rp1255
sg25
I2
sg26
F64.0
sbs(g9
S'as'
p1256
tp1257
g0
(g14
g2
Ntp1258
Rp1259
(dp1260
g18
F0.5
sg19
I198
sg20
g21
((dp1261
I00
I196
sI01
I2
stp1262
Rp1263
sg25
I2
sg26
F199.0
sbs(g8
S'yahoo'
p1264
tp1265
g0
(g14
g2
Ntp1266
Rp1267
(dp1268
g18
F0.5
sg19
I63
sg20
g21
((dp1269
I00
I62
sI01
I1
stp1270
Rp1271
sg25
I2
sg26
F64.0
sbs(g9
S'last'
p1272
tp1273
g0
(g14
g2
Ntp1274
Rp1275
(dp1276
g18
F0.5
sg19
I198
sg20
g21
((dp1277
I00
I195
sI01
I3
stp1278
Rp1279
sg25
I2
sg26
F199.0
sbs(g9
S'happy'
p1280
tp1281
g0
(g14
g2
Ntp1282
Rp1283
(dp1284
g18
F0.5
sg19
I198
sg20
g21
((dp1285
I00
I198
stp1286
Rp1287
sg25
I2
sg26
F199.0
sbs(g8
S'looking'
p1288
tp1289
g0
(g14
g2
Ntp1290
Rp1291
(dp1292
g18
F0.5
sg19
I63
sg20
g21
((dp1293
I00
I63
stp1294
Rp1295
sg25
I2
sg26
F64.0
sbs(g8
S'just'
p1296
tp1297
g0
(g14
g2
Ntp1298
Rp1299
(dp1300
g18
F0.5
sg19
I63
sg20
g21
((dp1301
I00
I59
sI01
I4
stp1302
Rp1303
sg25
I2
sg26
F64.0
sbs(g8
S'saw'
p1304
tp1305
g0
(g14
g2
Ntp1306
Rp1307
(dp1308
g18
F0.5
sg19
I63
sg20
g21
((dp1309
I00
I63
stp1310
Rp1311
sg25
I2
sg26
F64.0
sbs(g9
g690
tp1312
g0
(g14
g2
Ntp1313
Rp1314
(dp1315
g18
F0.5
sg19
I198
sg20
g21
((dp1316
I00
I197
sI01
I1
stp1317
Rp1318
sg25
I2
sg26
F199.0
sbs(g8
g817
tp1319
g0
(g14
g2
Ntp1320
Rp1321
(dp1322
g18
F0.5
sg19
I63
sg20
g21
((dp1323
I00
I63
stp1324
Rp1325
sg25
I2
sg26
F64.0
sbs(g8
S'nearby'
p1326
tp1327
g0
(g14
g2
Ntp1328
Rp1329
(dp1330
g18
F0.5
sg19
I63
sg20
g21
((dp1331
I00
I63
stp1332
Rp1333
sg25
I2
sg26
F64.0
sbs(g9
S'exiting'
p1334
tp1335
g0
(g14
g2
Ntp1336
Rp1337
(dp1338
g18
F0.5
sg19
I198
sg20
g21
((dp1339
I00
I197
sI01
I1
stp1340
Rp1341
sg25
I2
sg26
F199.0
sbs(g9
S'better'
p1342
tp1343
g0
(g14
g2
Ntp1344
Rp1345
(dp1346
g18
F0.5
sg19
I198
sg20
g21
((dp1347
I00
I196
sI01
I2
stp1348
Rp1349
sg25
I2
sg26
F199.0
sbs(g9
S'hoping'
p1350
tp1351
g0
(g14
g2
Ntp1352
Rp1353
(dp1354
g18
F0.5
sg19
I198
sg20
g21
((dp1355
I00
I196
sI01
I2
stp1356
Rp1357
sg25
I2
sg26
F199.0
sbs(g8
S'flip'
p1358
tp1359
g0
(g14
g2
Ntp1360
Rp1361
(dp1362
g18
F0.5
sg19
I63
sg20
g21
((dp1363
I00
I63
stp1364
Rp1365
sg25
I2
sg26
F64.0
sbs(g9
S's'
p1366
tp1367
g0
(g14
g2
Ntp1368
Rp1369
(dp1370
g18
F0.5
sg19
I198
sg20
g21
((dp1371
I00
I188
sI01
I10
stp1372
Rp1373
sg25
I2
sg26
F199.0
sbs(g8
S'drive'
p1374
tp1375
g0
(g14
g2
Ntp1376
Rp1377
(dp1378
g18
F0.5
sg19
I63
sg20
g21
((dp1379
I00
I63
stp1380
Rp1381
sg25
I2
sg26
F64.0
sbs(g8
S'buy'
p1382
tp1383
g0
(g14
g2
Ntp1384
Rp1385
(dp1386
g18
F0.5
sg19
I63
sg20
g21
((dp1387
I00
I61
sI01
I2
stp1388
Rp1389
sg25
I2
sg26
F64.0
sbs(g9
g155
tp1390
g0
(g14
g2
Ntp1391
Rp1392
(dp1393
g18
F0.5
sg19
I198
sg20
g21
((dp1394
I00
I197
sI01
I1
stp1395
Rp1396
sg25
I2
sg26
F199.0
sbs(g9
S'ptn'
p1397
tp1398
g0
(g14
g2
Ntp1399
Rp1400
(dp1401
g18
F0.5
sg19
I198
sg20
g21
((dp1402
I00
I197
sI01
I1
stp1403
Rp1404
sg25
I2
sg26
F199.0
sbs(g9
g234
tp1405
g0
(g14
g2
Ntp1406
Rp1407
(dp1408
g18
F0.5
sg19
I198
sg20
g21
((dp1409
I00
I197
sI01
I1
stp1410
Rp1411
sg25
I2
sg26
F199.0
sbs(g9
g745
tp1412
g0
(g14
g2
Ntp1413
Rp1414
(dp1415
g18
F0.5
sg19
I198
sg20
g21
((dp1416
I00
I198
stp1417
Rp1418
sg25
I1
sg26
F198.5
sbs(g9
S'bet'
p1419
tp1420
g0
(g14
g2
Ntp1421
Rp1422
(dp1423
g18
F0.5
sg19
I198
sg20
g21
((dp1424
I00
I197
sI01
I1
stp1425
Rp1426
sg25
I2
sg26
F199.0
sbs(g8
S'collect'
p1427
tp1428
g0
(g14
g2
Ntp1429
Rp1430
(dp1431
g18
F0.5
sg19
I63
sg20
g21
((dp1432
I00
I63
stp1433
Rp1434
sg25
I2
sg26
F64.0
sbs(g9
g881
tp1435
g0
(g14
g2
Ntp1436
Rp1437
(dp1438
g18
F0.5
sg19
I198
sg20
g21
((dp1439
I00
I187
sI01
I11
stp1440
Rp1441
sg25
I2
sg26
F199.0
sbs(g9
S'needs'
p1442
tp1443
g0
(g14
g2
Ntp1444
Rp1445
(dp1446
g18
F0.5
sg19
I198
sg20
g21
((dp1447
I00
I198
stp1448
Rp1449
sg25
I2
sg26
F199.0
sbs(g8
S'won'
p1450
tp1451
g0
(g14
g2
Ntp1452
Rp1453
(dp1454
g18
F0.5
sg19
I63
sg20
g21
((dp1455
I00
I63
stp1456
Rp1457
sg25
I2
sg26
F64.0
sbs(g8
S'scratch'
p1458
tp1459
g0
(g14
g2
Ntp1460
Rp1461
(dp1462
g18
F0.5
sg19
I63
sg20
g21
((dp1463
I00
I63
stp1464
Rp1465
sg25
I2
sg26
F64.0
sbs(g9
S'star'
p1466
tp1467
g0
(g14
g2
Ntp1468
Rp1469
(dp1470
g18
F0.5
sg19
I198
sg20
g21
((dp1471
I00
I197
sI01
I1
stp1472
Rp1473
sg25
I2
sg26
F199.0
sbs(g8
g59
tp1474
g0
(g14
g2
Ntp1475
Rp1476
(dp1477
g18
F0.5
sg19
I63
sg20
g21
((dp1478
I00
I62
sI01
I1
stp1479
Rp1480
sg25
I2
sg26
F64.0
sbs(g9
S'past'
p1481
tp1482
g0
(g14
g2
Ntp1483
Rp1484
(dp1485
g18
F0.5
sg19
I198
sg20
g21
((dp1486
I00
I193
sI01
I5
stp1487
Rp1488
sg25
I2
sg26
F199.0
sbs(g9
S'couldn'
p1489
tp1490
g0
(g14
g2
Ntp1491
Rp1492
(dp1493
g18
F0.5
sg19
I198
sg20
g21
((dp1494
I00
I198
stp1495
Rp1496
sg25
I1
sg26
F198.5
sbs(g9
S'trendreversal'
p1497
tp1498
g0
(g14
g2
Ntp1499
Rp1500
(dp1501
g18
F0.5
sg19
I198
sg20
g21
((dp1502
I00
I198
stp1503
Rp1504
sg25
I1
sg26
F198.5
sbs(g9
g242
tp1505
g0
(g14
g2
Ntp1506
Rp1507
(dp1508
g18
F0.5
sg19
I198
sg20
g21
((dp1509
I00
I196
sI01
I2
stp1510
Rp1511
sg25
I2
sg26
F199.0
sbs(g9
S'untapped'
p1512
tp1513
g0
(g14
g2
Ntp1514
Rp1515
(dp1516
g18
F0.5
sg19
I198
sg20
g21
((dp1517
I00
I197
sI01
I1
stp1518
Rp1519
sg25
I2
sg26
F199.0
sbs(g9
S'worth'
p1520
tp1521
g0
(g14
g2
Ntp1522
Rp1523
(dp1524
g18
F0.5
sg19
I198
sg20
g21
((dp1525
I00
I196
sI01
I2
stp1526
Rp1527
sg25
I2
sg26
F199.0
sbs(g8
S'short'
p1528
tp1529
g0
(g14
g2
Ntp1530
Rp1531
(dp1532
g18
F0.5
sg19
I63
sg20
g21
((dp1533
I00
I62
sI01
I1
stp1534
Rp1535
sg25
I2
sg26
F64.0
sbs(g9
S'+'
p1536
tp1537
g0
(g14
g2
Ntp1538
Rp1539
(dp1540
g18
F0.5
sg19
I198
sg20
g21
((dp1541
I00
I195
sI01
I3
stp1542
Rp1543
sg25
I2
sg26
F199.0
sbs(g9
S'first'
p1544
tp1545
g0
(g14
g2
Ntp1546
Rp1547
(dp1548
g18
F0.5
sg19
I198
sg20
g21
((dp1549
I00
I197
sI01
I1
stp1550
Rp1551
sg25
I2
sg26
F199.0
sbs(g8
S'dimon'
p1552
tp1553
g0
(g14
g2
Ntp1554
Rp1555
(dp1556
g18
F0.5
sg19
I63
sg20
g21
((dp1557
I00
I63
stp1558
Rp1559
sg25
I2
sg26
F64.0
sbs(g8
S'initiated'
p1560
tp1561
g0
(g14
g2
Ntp1562
Rp1563
(dp1564
g18
F0.5
sg19
I63
sg20
g21
((dp1565
I00
I63
stp1566
Rp1567
sg25
I2
sg26
F64.0
sbs(g9
S'marketed'
p1568
tp1569
g0
(g14
g2
Ntp1570
Rp1571
(dp1572
g18
F0.5
sg19
I198
sg20
g21
((dp1573
I00
I198
stp1574
Rp1575
sg25
I2
sg26
F199.0
sbs(g8
g518
tp1576
g0
(g14
g2
Ntp1577
Rp1578
(dp1579
g18
F0.5
sg19
I63
sg20
g21
((dp1580
I00
I63
stp1581
Rp1582
sg25
I2
sg26
F64.0
sbs(g9
S'need'
p1583
tp1584
g0
(g14
g2
Ntp1585
Rp1586
(dp1587
g18
F0.5
sg19
I198
sg20
g21
((dp1588
I00
I198
stp1589
Rp1590
sg25
I1
sg26
F198.5
sbs(g8
S'//www.streetauthority.com/income-investing/tech-income-you-better-believe-it-30701454'
p1591
tp1592
g0
(g14
g2
Ntp1593
Rp1594
(dp1595
g18
F0.5
sg19
I63
sg20
g21
((dp1596
I00
I63
stp1597
Rp1598
sg25
I2
sg26
F64.0
sbs(g8
S'owning'
p1599
tp1600
g0
(g14
g2
Ntp1601
Rp1602
(dp1603
g18
F0.5
sg19
I63
sg20
g21
((dp1604
I00
I63
stp1605
Rp1606
sg25
I2
sg26
F64.0
sbs(g8
S'nest'
p1607
tp1608
g0
(g14
g2
Ntp1609
Rp1610
(dp1611
g18
F0.5
sg19
I63
sg20
g21
((dp1612
I00
I63
stp1613
Rp1614
sg25
I2
sg26
F64.0
sbs(g8
S'do'
p1615
tp1616
g0
(g14
g2
Ntp1617
Rp1618
(dp1619
g18
F0.5
sg19
I63
sg20
g21
((dp1620
I00
I59
sI01
I4
stp1621
Rp1622
sg25
I2
sg26
F64.0
sbs(g9
S'die'
p1623
tp1624
g0
(g14
g2
Ntp1625
Rp1626
(dp1627
g18
F0.5
sg19
I198
sg20
g21
((dp1628
I00
I197
sI01
I1
stp1629
Rp1630
sg25
I2
sg26
F199.0
sbs(g8
S'coming'
p1631
tp1632
g0
(g14
g2
Ntp1633
Rp1634
(dp1635
g18
F0.5
sg19
I63
sg20
g21
((dp1636
I00
I63
stp1637
Rp1638
sg25
I2
sg26
F64.0
sbs(g9
S'app'
p1639
tp1640
g0
(g14
g2
Ntp1641
Rp1642
(dp1643
g18
F0.5
sg19
I198
sg20
g21
((dp1644
I00
I192
sI01
I6
stp1645
Rp1646
sg25
I2
sg26
F199.0
sbs(g9
S'hates'
p1647
tp1648
g0
(g14
g2
Ntp1649
Rp1650
(dp1651
g18
F0.5
sg19
I198
sg20
g21
((dp1652
I00
I198
stp1653
Rp1654
sg25
I1
sg26
F198.5
sbs(g8
S'wait'
p1655
tp1656
g0
(g14
g2
Ntp1657
Rp1658
(dp1659
g18
F0.5
sg19
I63
sg20
g21
((dp1660
I00
I63
stp1661
Rp1662
sg25
I2
sg26
F64.0
sbs(g9
S'much'
p1663
tp1664
g0
(g14
g2
Ntp1665
Rp1666
(dp1667
g18
F0.5
sg19
I198
sg20
g21
((dp1668
I00
I197
sI01
I1
stp1669
Rp1670
sg25
I2
sg26
F199.0
sbs(g8
S'ready'
p1671
tp1672
g0
(g14
g2
Ntp1673
Rp1674
(dp1675
g18
F0.5
sg19
I63
sg20
g21
((dp1676
I00
I63
stp1677
Rp1678
sg25
I2
sg26
F64.0
sbs(g9
g1560
tp1679
g0
(g14
g2
Ntp1680
Rp1681
(dp1682
g18
F0.5
sg19
I198
sg20
g21
((dp1683
I00
I197
sI01
I1
stp1684
Rp1685
sg25
I2
sg26
F199.0
sbs(g8
S'new'
p1686
tp1687
g0
(g14
g2
Ntp1688
Rp1689
(dp1690
g18
F0.5
sg19
I63
sg20
g21
((dp1691
I00
I62
sI01
I1
stp1692
Rp1693
sg25
I2
sg26
F64.0
sbs(g8
g510
tp1694
g0
(g14
g2
Ntp1695
Rp1696
(dp1697
g18
F0.5
sg19
I63
sg20
g21
((dp1698
I00
I63
stp1699
Rp1700
sg25
I2
sg26
F64.0
sbs(g9
S'heated'
p1701
tp1702
g0
(g14
g2
Ntp1703
Rp1704
(dp1705
g18
F0.5
sg19
I198
sg20
g21
((dp1706
I00
I198
stp1707
Rp1708
sg25
I2
sg26
F199.0
sbs(g9
S'designed'
p1709
tp1710
g0
(g14
g2
Ntp1711
Rp1712
(dp1713
g18
F0.5
sg19
I198
sg20
g21
((dp1714
I00
I198
stp1715
Rp1716
sg25
I2
sg26
F199.0
sbs(g9
g1148
tp1717
g0
(g14
g2
Ntp1718
Rp1719
(dp1720
g18
F0.5
sg19
I198
sg20
g21
((dp1721
I00
I198
stp1722
Rp1723
sg25
I2
sg26
F199.0
sbs(g8
S'cost'
p1724
tp1725
g0
(g14
g2
Ntp1726
Rp1727
(dp1728
g18
F0.5
sg19
I63
sg20
g21
((dp1729
I00
I61
sI01
I2
stp1730
Rp1731
sg25
I2
sg26
F64.0
sbs(g9
S'am'
p1732
tp1733
g0
(g14
g2
Ntp1734
Rp1735
(dp1736
g18
F0.5
sg19
I198
sg20
g21
((dp1737
I00
I197
sI01
I1
stp1738
Rp1739
sg25
I2
sg26
F199.0
sbs(g8
S'red'
p1740
tp1741
g0
(g14
g2
Ntp1742
Rp1743
(dp1744
g18
F0.5
sg19
I63
sg20
g21
((dp1745
I00
I63
stp1746
Rp1747
sg25
I2
sg26
F64.0
sbs(g8
S'mofoz'
p1748
tp1749
g0
(g14
g2
Ntp1750
Rp1751
(dp1752
g18
F0.5
sg19
I63
sg20
g21
((dp1753
I00
I63
stp1754
Rp1755
sg25
I2
sg26
F64.0
sbs(g9
g889
tp1756
g0
(g14
g2
Ntp1757
Rp1758
(dp1759
g18
F0.5
sg19
I198
sg20
g21
((dp1760
I00
I194
sI01
I4
stp1761
Rp1762
sg25
I2
sg26
F199.0
sbs(g9
S'undervalued'
p1763
tp1764
g0
(g14
g2
Ntp1765
Rp1766
(dp1767
g18
F0.5
sg19
I198
sg20
g21
((dp1768
I00
I197
sI01
I1
stp1769
Rp1770
sg25
I2
sg26
F199.0
sbs(g8
S'used'
p1771
tp1772
g0
(g14
g2
Ntp1773
Rp1774
(dp1775
g18
F0.5
sg19
I63
sg20
g21
((dp1776
I00
I62
sI01
I1
stp1777
Rp1778
sg25
I2
sg26
F64.0
sbs(g9
S'sold'
p1779
tp1780
g0
(g14
g2
Ntp1781
Rp1782
(dp1783
g18
F0.5
sg19
I198
sg20
g21
((dp1784
I00
I195
sI01
I3
stp1785
Rp1786
sg25
I2
sg26
F199.0
sbs(g9
S'take'
p1787
tp1788
g0
(g14
g2
Ntp1789
Rp1790
(dp1791
g18
F0.5
sg19
I198
sg20
g21
((dp1792
I00
I195
sI01
I3
stp1793
Rp1794
sg25
I2
sg26
F199.0
sbs(g8
g960
tp1795
g0
(g14
g2
Ntp1796
Rp1797
(dp1798
g18
F0.5
sg19
I63
sg20
g21
((dp1799
I00
I63
stp1800
Rp1801
sg25
I2
sg26
F64.0
sbs(g9
g1382
tp1802
g0
(g14
g2
Ntp1803
Rp1804
(dp1805
g18
F0.5
sg19
I198
sg20
g21
((dp1806
I00
I190
sI01
I8
stp1807
Rp1808
sg25
I2
sg26
F199.0
sbs(g9
S'+100'
p1809
tp1810
g0
(g14
g2
Ntp1811
Rp1812
(dp1813
g18
F0.5
sg19
I198
sg20
g21
((dp1814
I00
I197
sI01
I1
stp1815
Rp1816
sg25
I2
sg26
F199.0
sbs(g8
S'source=ansh'
p1817
tp1818
g0
(g14
g2
Ntp1819
Rp1820
(dp1821
g18
F0.5
sg19
I63
sg20
g21
((dp1822
I00
I63
stp1823
Rp1824
sg25
I2
sg26
F64.0
sbs(g9
S'test'
p1825
tp1826
g0
(g14
g2
Ntp1827
Rp1828
(dp1829
g18
F0.5
sg19
I198
sg20
g21
((dp1830
I00
I195
sI01
I3
stp1831
Rp1832
sg25
I2
sg26
F199.0
sbs(g8
S'blocked'
p1833
tp1834
g0
(g14
g2
Ntp1835
Rp1836
(dp1837
g18
F0.5
sg19
I63
sg20
g21
((dp1838
I00
I62
sI01
I1
stp1839
Rp1840
sg25
I2
sg26
F64.0
sbs(g9
S'uptrend'
p1841
tp1842
g0
(g14
g2
Ntp1843
Rp1844
(dp1845
g18
F0.5
sg19
I198
sg20
g21
((dp1846
I00
I197
sI01
I1
stp1847
Rp1848
sg25
I2
sg26
F199.0
sbs(g8
S'load'
p1849
tp1850
g0
(g14
g2
Ntp1851
Rp1852
(dp1853
g18
F0.5
sg19
I63
sg20
g21
((dp1854
I00
I63
stp1855
Rp1856
sg25
I2
sg26
F64.0
sbs(g8
S'entering'
p1857
tp1858
g0
(g14
g2
Ntp1859
Rp1860
(dp1861
g18
F0.5
sg19
I63
sg20
g21
((dp1862
I00
I63
stp1863
Rp1864
sg25
I2
sg26
F64.0
sbs(g9
S'//quad7capital.com/2017/09/15/move-apple-iphone-8-samsungs-galaxy-note-8/'
p1865
tp1866
g0
(g14
g2
Ntp1867
Rp1868
(dp1869
g18
F0.5
sg19
I198
sg20
g21
((dp1870
I00
I197
sI01
I1
stp1871
Rp1872
sg25
I2
sg26
F199.0
sbs(g8
S'buys'
p1873
tp1874
g0
(g14
g2
Ntp1875
Rp1876
(dp1877
g18
F0.5
sg19
I63
sg20
g21
((dp1878
I00
I63
stp1879
Rp1880
sg25
I2
sg26
F64.0
sbs(g9
S'bitcoin'
p1881
tp1882
g0
(g14
g2
Ntp1883
Rp1884
(dp1885
g18
F0.5
sg19
I198
sg20
g21
((dp1886
I00
I197
sI01
I1
stp1887
Rp1888
sg25
I2
sg26
F199.0
sbs(g9
S'correct'
p1889
tp1890
g0
(g14
g2
Ntp1891
Rp1892
(dp1893
g18
F0.5
sg19
I198
sg20
g21
((dp1894
I00
I197
sI01
I1
stp1895
Rp1896
sg25
I2
sg26
F199.0
sbs(g8
g1497
tp1897
g0
(g14
g2
Ntp1898
Rp1899
(dp1900
g18
F0.5
sg19
I63
sg20
g21
((dp1901
I00
I63
stp1902
Rp1903
sg25
I1
sg26
F63.5
sbs(g9
S'create'
p1904
tp1905
g0
(g14
g2
Ntp1906
Rp1907
(dp1908
g18
F0.5
sg19
I198
sg20
g21
((dp1909
I00
I197
sI01
I1
stp1910
Rp1911
sg25
I2
sg26
F199.0
sbs(g9
S'happens'
p1912
tp1913
g0
(g14
g2
Ntp1914
Rp1915
(dp1916
g18
F0.5
sg19
I198
sg20
g21
((dp1917
I00
I197
sI01
I1
stp1918
Rp1919
sg25
I2
sg26
F199.0
sbs(g9
S'u'
p1920
tp1921
g0
(g14
g2
Ntp1922
Rp1923
(dp1924
g18
F0.5
sg19
I198
sg20
g21
((dp1925
I00
I197
sI01
I1
stp1926
Rp1927
sg25
I2
sg26
F199.0
sbs(g8
S'waiting'
p1928
tp1929
g0
(g14
g2
Ntp1930
Rp1931
(dp1932
g18
F0.5
sg19
I63
sg20
g21
((dp1933
I00
I63
stp1934
Rp1935
sg25
I2
sg26
F64.0
sbs(g8
S'piss'
p1936
tp1937
g0
(g14
g2
Ntp1938
Rp1939
(dp1940
g18
F0.5
sg19
I63
sg20
g21
((dp1941
I00
I61
sI01
I2
stp1942
Rp1943
sg25
I2
sg26
F64.0
sbs(g9
S'retails'
p1944
tp1945
g0
(g14
g2
Ntp1946
Rp1947
(dp1948
g18
F0.5
sg19
I198
sg20
g21
((dp1949
I00
I197
sI01
I1
stp1950
Rp1951
sg25
I2
sg26
F199.0
sbs(g9
S'intellectual'
p1952
tp1953
g0
(g14
g2
Ntp1954
Rp1955
(dp1956
g18
F0.5
sg19
I198
sg20
g21
((dp1957
I00
I197
sI01
I1
stp1958
Rp1959
sg25
I2
sg26
F199.0
sbs(g8
S'calls'
p1960
tp1961
g0
(g14
g2
Ntp1962
Rp1963
(dp1964
g18
F0.5
sg19
I63
sg20
g21
((dp1965
I00
I63
stp1966
Rp1967
sg25
I2
sg26
F64.0
sbs(g9
S'only'
p1968
tp1969
g0
(g14
g2
Ntp1970
Rp1971
(dp1972
g18
F0.5
sg19
I198
sg20
g21
((dp1973
I00
I194
sI01
I4
stp1974
Rp1975
sg25
I2
sg26
F199.0
sbs(g8
S'lower'
p1976
tp1977
g0
(g14
g2
Ntp1978
Rp1979
(dp1980
g18
F0.5
sg19
I63
sg20
g21
((dp1981
I00
I63
stp1982
Rp1983
sg25
I2
sg26
F64.0
sbs(g8
S'aside'
p1984
tp1985
g0
(g14
g2
Ntp1986
Rp1987
(dp1988
g18
F0.5
sg19
I63
sg20
g21
((dp1989
I00
I63
stp1990
Rp1991
sg25
I1
sg26
F63.5
sbs(g8
S'following'
p1992
tp1993
g0
(g14
g2
Ntp1994
Rp1995
(dp1996
g18
F0.5
sg19
I63
sg20
g21
((dp1997
I00
I63
stp1998
Rp1999
sg25
I1
sg26
F63.5
sbs(g8
g1180
tp2000
g0
(g14
g2
Ntp2001
Rp2002
(dp2003
g18
F0.5
sg19
I63
sg20
g21
((dp2004
I00
I63
stp2005
Rp2006
sg25
I2
sg26
F64.0
sbs(g9
S'sept'
p2007
tp2008
g0
(g14
g2
Ntp2009
Rp2010
(dp2011
g18
F0.5
sg19
I198
sg20
g21
((dp2012
I00
I195
sI01
I3
stp2013
Rp2014
sg25
I2
sg26
F199.0
sbs(g9
S'@'
p2015
tp2016
g0
(g14
g2
Ntp2017
Rp2018
(dp2019
g18
F0.5
sg19
I198
sg20
g21
((dp2020
I00
I181
sI01
I17
stp2021
Rp2022
sg25
I2
sg26
F199.0
sbs(g9
g737
tp2023
g0
(g14
g2
Ntp2024
Rp2025
(dp2026
g18
F0.5
sg19
I198
sg20
g21
((dp2027
I00
I196
sI01
I2
stp2028
Rp2029
sg25
I2
sg26
F199.0
sbs(g8
S'lol'
p2030
tp2031
g0
(g14
g2
Ntp2032
Rp2033
(dp2034
g18
F0.5
sg19
I63
sg20
g21
((dp2035
I00
I63
stp2036
Rp2037
sg25
I2
sg26
F64.0
sbs(g8
S'corporate'
p2038
tp2039
g0
(g14
g2
Ntp2040
Rp2041
(dp2042
g18
F0.5
sg19
I63
sg20
g21
((dp2043
I00
I63
stp2044
Rp2045
sg25
I2
sg26
F64.0
sbs(g8
S'outstanding'
p2046
tp2047
g0
(g14
g2
Ntp2048
Rp2049
(dp2050
g18
F0.5
sg19
I63
sg20
g21
((dp2051
I00
I63
stp2052
Rp2053
sg25
I2
sg26
F64.0
sbs(g9
S'affected'
p2054
tp2055
g0
(g14
g2
Ntp2056
Rp2057
(dp2058
g18
F0.5
sg19
I198
sg20
g21
((dp2059
I00
I198
stp2060
Rp2061
sg25
I2
sg26
F199.0
sbs(g9
S'concrete'
p2062
tp2063
g0
(g14
g2
Ntp2064
Rp2065
(dp2066
g18
F0.5
sg19
I198
sg20
g21
((dp2067
I00
I198
stp2068
Rp2069
sg25
I2
sg26
F199.0
sbs(g9
S'eyeing'
p2070
tp2071
g0
(g14
g2
Ntp2072
Rp2073
(dp2074
g18
F0.5
sg19
I198
sg20
g21
((dp2075
I00
I198
stp2076
Rp2077
sg25
I2
sg26
F199.0
sbs(g8
S'adapt'
p2078
tp2079
g0
(g14
g2
Ntp2080
Rp2081
(dp2082
g18
F0.5
sg19
I63
sg20
g21
((dp2083
I00
I63
stp2084
Rp2085
sg25
I2
sg26
F64.0
sbs(g9
S'thank'
p2086
tp2087
g0
(g14
g2
Ntp2088
Rp2089
(dp2090
g18
F0.5
sg19
I198
sg20
g21
((dp2091
I00
I197
sI01
I1
stp2092
Rp2093
sg25
I2
sg26
F199.0
sbs(g9
S'other'
p2094
tp2095
g0
(g14
g2
Ntp2096
Rp2097
(dp2098
g18
F0.5
sg19
I198
sg20
g21
((dp2099
I00
I196
sI01
I2
stp2100
Rp2101
sg25
I2
sg26
F199.0
sbs(g9
S'love'
p2102
tp2103
g0
(g14
g2
Ntp2104
Rp2105
(dp2106
g18
F0.5
sg19
I198
sg20
g21
((dp2107
I00
I197
sI01
I1
stp2108
Rp2109
sg25
I2
sg26
F199.0
sbs(g9
g99
tp2110
g0
(g14
g2
Ntp2111
Rp2112
(dp2113
g18
F0.5
sg19
I198
sg20
g21
((dp2114
I00
I198
stp2115
Rp2116
sg25
I1
sg26
F198.5
sbs(g9
S'leaves'
p2117
tp2118
g0
(g14
g2
Ntp2119
Rp2120
(dp2121
g18
F0.5
sg19
I198
sg20
g21
((dp2122
I00
I197
sI01
I1
stp2123
Rp2124
sg25
I2
sg26
F199.0
sbs(g9
S'cloud'
p2125
tp2126
g0
(g14
g2
Ntp2127
Rp2128
(dp2129
g18
F0.5
sg19
I198
sg20
g21
((dp2130
I00
I197
sI01
I1
stp2131
Rp2132
sg25
I2
sg26
F199.0
sbs(g9
g1040
tp2133
g0
(g14
g2
Ntp2134
Rp2135
(dp2136
g18
F0.5
sg19
I198
sg20
g21
((dp2137
I00
I198
stp2138
Rp2139
sg25
I2
sg26
F199.0
sbs(g8
S'xlf'
p2140
tp2141
g0
(g14
g2
Ntp2142
Rp2143
(dp2144
g18
F0.5
sg19
I63
sg20
g21
((dp2145
I00
I63
stp2146
Rp2147
sg25
I1
sg26
F63.5
sbs(g8
g534
tp2148
g0
(g14
g2
Ntp2149
Rp2150
(dp2151
g18
F0.5
sg19
I63
sg20
g21
((dp2152
I00
I60
sI01
I3
stp2153
Rp2154
sg25
I2
sg26
F64.0
sbs(g8
S'is'
p2155
tp2156
g0
(g14
g2
Ntp2157
Rp2158
(dp2159
g18
F0.5
sg19
I63
sg20
g21
((dp2160
I00
I51
sI01
I12
stp2161
Rp2162
sg25
I2
sg26
F64.0
sbs(g9
g67
tp2163
g0
(g14
g2
Ntp2164
Rp2165
(dp2166
g18
F0.5
sg19
I198
sg20
g21
((dp2167
I00
I198
stp2168
Rp2169
sg25
I1
sg26
F198.5
sbs(g9
S'free'
p2170
tp2171
g0
(g14
g2
Ntp2172
Rp2173
(dp2174
g18
F0.5
sg19
I198
sg20
g21
((dp2175
I00
I196
sI01
I2
stp2176
Rp2177
sg25
I2
sg26
F199.0
sbs(g8
g447
tp2178
g0
(g14
g2
Ntp2179
Rp2180
(dp2181
g18
F0.5
sg19
I63
sg20
g21
((dp2182
I00
I61
sI01
I2
stp2183
Rp2184
sg25
I2
sg26
F64.0
sbs(g9
S'throw'
p2185
tp2186
g0
(g14
g2
Ntp2187
Rp2188
(dp2189
g18
F0.5
sg19
I198
sg20
g21
((dp2190
I00
I197
sI01
I1
stp2191
Rp2192
sg25
I2
sg26
F199.0
sbs(g8
g1944
tp2193
g0
(g14
g2
Ntp2194
Rp2195
(dp2196
g18
F0.5
sg19
I63
sg20
g21
((dp2197
I00
I63
stp2198
Rp2199
sg25
I2
sg26
F64.0
sbs(g9
g1124
tp2200
g0
(g14
g2
Ntp2201
Rp2202
(dp2203
g18
F0.5
sg19
I198
sg20
g21
((dp2204
I00
I196
sI01
I2
stp2205
Rp2206
sg25
I2
sg26
F199.0
sbs(g8
S'105.19-20'
p2207
tp2208
g0
(g14
g2
Ntp2209
Rp2210
(dp2211
g18
F0.5
sg19
I63
sg20
g21
((dp2212
I00
I63
stp2213
Rp2214
sg25
I2
sg26
F64.0
sbs(g8
S'//www.nasdaq.com/article/pfizer-xtandi-succeeds-in-early-stage-prostate-cancer-study-cm846359'
p2215
tp2216
g0
(g14
g2
Ntp2217
Rp2218
(dp2219
g18
F0.5
sg19
I63
sg20
g21
((dp2220
I00
I63
stp2221
Rp2222
sg25
I2
sg26
F64.0
sbs(g9
S'break'
p2223
tp2224
g0
(g14
g2
Ntp2225
Rp2226
(dp2227
g18
F0.5
sg19
I198
sg20
g21
((dp2228
I00
I195
sI01
I3
stp2229
Rp2230
sg25
I2
sg26
F199.0
sbs(g9
S'//www.trustnodes.com/2017/09/16/jp-morgan-buys-bitcoin-price-rises-20'
p2231
tp2232
g0
(g14
g2
Ntp2233
Rp2234
(dp2235
g18
F0.5
sg19
I198
sg20
g21
((dp2236
I00
I197
sI01
I1
stp2237
Rp2238
sg25
I2
sg26
F199.0
sbs(g9
S'done'
p2239
tp2240
g0
(g14
g2
Ntp2241
Rp2242
(dp2243
g18
F0.5
sg19
I198
sg20
g21
((dp2244
I00
I198
stp2245
Rp2246
sg25
I2
sg26
F199.0
sbs(g8
S'was'
p2247
tp2248
g0
(g14
g2
Ntp2249
Rp2250
(dp2251
g18
F0.5
sg19
I63
sg20
g21
((dp2252
I00
I63
stp2253
Rp2254
sg25
I2
sg26
F64.0
sbs(g8
S'see'
p2255
tp2256
g0
(g14
g2
Ntp2257
Rp2258
(dp2259
g18
F0.5
sg19
I63
sg20
g21
((dp2260
I00
I62
sI01
I1
stp2261
Rp2262
sg25
I2
sg26
F64.0
sbs(g8
g2094
tp2263
g0
(g14
g2
Ntp2264
Rp2265
(dp2266
g18
F0.5
sg19
I63
sg20
g21
((dp2267
I00
I61
sI01
I2
stp2268
Rp2269
sg25
I2
sg26
F64.0
sbs(g9
g1063
tp2270
g0
(g14
g2
Ntp2271
Rp2272
(dp2273
g18
F0.5
sg19
I198
sg20
g21
((dp2274
I00
I197
sI01
I1
stp2275
Rp2276
sg25
I2
sg26
F199.0
sbs(g9
S'least'
p2277
tp2278
g0
(g14
g2
Ntp2279
Rp2280
(dp2281
g18
F0.5
sg19
I198
sg20
g21
((dp2282
I00
I197
sI01
I1
stp2283
Rp2284
sg25
I2
sg26
F199.0
sbs(g8
S'geneediting'
p2285
tp2286
g0
(g14
g2
Ntp2287
Rp2288
(dp2289
g18
F0.5
sg19
I63
sg20
g21
((dp2290
I00
I63
stp2291
Rp2292
sg25
I2
sg26
F64.0
sbs(g9
S'tiny'
p2293
tp2294
g0
(g14
g2
Ntp2295
Rp2296
(dp2297
g18
F0.5
sg19
I198
sg20
g21
((dp2298
I00
I197
sI01
I1
stp2299
Rp2300
sg25
I2
sg26
F199.0
sbs(g9
S'doomed'
p2301
tp2302
g0
(g14
g2
Ntp2303
Rp2304
(dp2305
g18
F0.5
sg19
I198
sg20
g21
((dp2306
I00
I197
sI01
I1
stp2307
Rp2308
sg25
I2
sg26
F199.0
sbs(g8
S'catch'
p2309
tp2310
g0
(g14
g2
Ntp2311
Rp2312
(dp2313
g18
F0.5
sg19
I63
sg20
g21
((dp2314
I00
I62
sI01
I1
stp2315
Rp2316
sg25
I2
sg26
F64.0
sbs(g9
S'never'
p2317
tp2318
g0
(g14
g2
Ntp2319
Rp2320
(dp2321
g18
F0.5
sg19
I198
sg20
g21
((dp2322
I00
I198
stp2323
Rp2324
sg25
I2
sg26
F199.0
sbs(g9
g439
tp2325
g0
(g14
g2
Ntp2326
Rp2327
(dp2328
g18
F0.5
sg19
I198
sg20
g21
((dp2329
I00
I194
sI01
I4
stp2330
Rp2331
sg25
I2
sg26
F199.0
sbs(g8
S'excessive'
p2332
tp2333
g0
(g14
g2
Ntp2334
Rp2335
(dp2336
g18
F0.5
sg19
I63
sg20
g21
((dp2337
I00
I63
stp2338
Rp2339
sg25
I2
sg26
F64.0
sbs(g8
g336
tp2340
g0
(g14
g2
Ntp2341
Rp2342
(dp2343
g18
F0.5
sg19
I63
sg20
g21
((dp2344
I00
I63
stp2345
Rp2346
sg25
I2
sg26
F64.0
sbs(g8
S'plop'
p2347
tp2348
g0
(g14
g2
Ntp2349
Rp2350
(dp2351
g18
F0.5
sg19
I63
sg20
g21
((dp2352
I00
I63
stp2353
Rp2354
sg25
I2
sg26
F64.0
sbs(g9
S'expect'
p2355
tp2356
g0
(g14
g2
Ntp2357
Rp2358
(dp2359
g18
F0.5
sg19
I198
sg20
g21
((dp2360
I00
I197
sI01
I1
stp2361
Rp2362
sg25
I2
sg26
F199.0
sbs(g9
S'cut'
p2363
tp2364
g0
(g14
g2
Ntp2365
Rp2366
(dp2367
g18
F0.5
sg19
I198
sg20
g21
((dp2368
I00
I196
sI01
I2
stp2369
Rp2370
sg25
I2
sg26
F199.0
sbs(g8
S'prostate'
p2371
tp2372
g0
(g14
g2
Ntp2373
Rp2374
(dp2375
g18
F0.5
sg19
I63
sg20
g21
((dp2376
I00
I63
stp2377
Rp2378
sg25
I2
sg26
F64.0
sbs(g8
g367
tp2379
g0
(g14
g2
Ntp2380
Rp2381
(dp2382
g18
F0.5
sg19
I63
sg20
g21
((dp2383
I00
I63
stp2384
Rp2385
sg25
I2
sg26
F64.0
sbs(g9
S'visible'
p2386
tp2387
g0
(g14
g2
Ntp2388
Rp2389
(dp2390
g18
F0.5
sg19
I198
sg20
g21
((dp2391
I00
I198
stp2392
Rp2393
sg25
I2
sg26
F199.0
sbs(g8
S'more'
p2394
tp2395
g0
(g14
g2
Ntp2396
Rp2397
(dp2398
g18
F0.5
sg19
I63
sg20
g21
((dp2399
I00
I62
sI01
I1
stp2400
Rp2401
sg25
I2
sg26
F64.0
sbs(g9
g383
tp2402
g0
(g14
g2
Ntp2403
Rp2404
(dp2405
g18
F0.5
sg19
I198
sg20
g21
((dp2406
I00
I197
sI01
I1
stp2407
Rp2408
sg25
I2
sg26
F199.0
sbs(g9
S'increased'
p2409
tp2410
g0
(g14
g2
Ntp2411
Rp2412
(dp2413
g18
F0.5
sg19
I198
sg20
g21
((dp2414
I00
I197
sI01
I1
stp2415
Rp2416
sg25
I2
sg26
F199.0
sbs(g8
S'adopt'
p2417
tp2418
g0
(g14
g2
Ntp2419
Rp2420
(dp2421
g18
F0.5
sg19
I63
sg20
g21
((dp2422
I00
I63
stp2423
Rp2424
sg25
I2
sg26
F64.0
sbs(g8
S'//investoralmanac.com/2017/07/31/baron-energy-and-resources-2q17-contradictions-plaguing-the-industry-peak-demand-really/'
p2425
tp2426
g0
(g14
g2
Ntp2427
Rp2428
(dp2429
g18
F0.5
sg19
I63
sg20
g21
((dp2430
I00
I63
stp2431
Rp2432
sg25
I2
sg26
F64.0
sbs(g9
S'ya'
p2433
tp2434
g0
(g14
g2
Ntp2435
Rp2436
(dp2437
g18
F0.5
sg19
I198
sg20
g21
((dp2438
I00
I198
stp2439
Rp2440
sg25
I1
sg26
F198.5
sbs(g9
g1960
tp2441
g0
(g14
g2
Ntp2442
Rp2443
(dp2444
g18
F0.5
sg19
I198
sg20
g21
((dp2445
I00
I194
sI01
I4
stp2446
Rp2447
sg25
I2
sg26
F199.0
sbs(g8
g147
tp2448
g0
(g14
g2
Ntp2449
Rp2450
(dp2451
g18
F0.5
sg19
I63
sg20
g21
((dp2452
I00
I63
stp2453
Rp2454
sg25
I2
sg26
F64.0
sbs(g8
S'high'
p2455
tp2456
g0
(g14
g2
Ntp2457
Rp2458
(dp2459
g18
F0.5
sg19
I63
sg20
g21
((dp2460
I00
I62
sI01
I1
stp2461
Rp2462
sg25
I2
sg26
F64.0
sbs(g9
g1873
tp2463
g0
(g14
g2
Ntp2464
Rp2465
(dp2466
g18
F0.5
sg19
I198
sg20
g21
((dp2467
I00
I197
sI01
I1
stp2468
Rp2469
sg25
I2
sg26
F199.0
sbs(g8
g1912
tp2470
g0
(g14
g2
Ntp2471
Rp2472
(dp2473
g18
F0.5
sg19
I63
sg20
g21
((dp2474
I00
I62
sI01
I1
stp2475
Rp2476
sg25
I2
sg26
F64.0
sbs(g9
g1264
tp2477
g0
(g14
g2
Ntp2478
Rp2479
(dp2480
g18
F0.5
sg19
I198
sg20
g21
((dp2481
I00
I198
stp2482
Rp2483
sg25
I2
sg26
F199.0
sbs(g9
S'salary'
p2484
tp2485
g0
(g14
g2
Ntp2486
Rp2487
(dp2488
g18
F0.5
sg19
I198
sg20
g21
((dp2489
I00
I197
sI01
I1
stp2490
Rp2491
sg25
I2
sg26
F199.0
sbs(g8
S'big'
p2492
tp2493
g0
(g14
g2
Ntp2494
Rp2495
(dp2496
g18
F0.5
sg19
I63
sg20
g21
((dp2497
I00
I63
stp2498
Rp2499
sg25
I2
sg26
F64.0
sbs(g9
g1427
tp2500
g0
(g14
g2
Ntp2501
Rp2502
(dp2503
g18
F0.5
sg19
I198
sg20
g21
((dp2504
I00
I197
sI01
I1
stp2505
Rp2506
sg25
I2
sg26
F199.0
sbs(g8
g1865
tp2507
g0
(g14
g2
Ntp2508
Rp2509
(dp2510
g18
F0.5
sg19
I63
sg20
g21
((dp2511
I00
I63
stp2512
Rp2513
sg25
I2
sg26
F64.0
sbs(g9
g2207
tp2514
g0
(g14
g2
Ntp2515
Rp2516
(dp2517
g18
F0.5
sg19
I198
sg20
g21
((dp2518
I00
I197
sI01
I1
stp2519
Rp2520
sg25
I2
sg26
F199.0
sbs(g9
S'f'
p2521
tp2522
g0
(g14
g2
Ntp2523
Rp2524
(dp2525
g18
F0.5
sg19
I198
sg20
g21
((dp2526
I00
I198
stp2527
Rp2528
sg25
I2
sg26
F199.0
sbs(g9
S'think'
p2529
tp2530
g0
(g14
g2
Ntp2531
Rp2532
(dp2533
g18
F0.5
sg19
I198
sg20
g21
((dp2534
I00
I192
sI01
I6
stp2535
Rp2536
sg25
I2
sg26
F199.0
sbs(g8
g2363
tp2537
g0
(g14
g2
Ntp2538
Rp2539
(dp2540
g18
F0.5
sg19
I63
sg20
g21
((dp2541
I00
I63
stp2542
Rp2543
sg25
I2
sg26
F64.0
sbs(g9
g2371
tp2544
g0
(g14
g2
Ntp2545
Rp2546
(dp2547
g18
F0.5
sg19
I198
sg20
g21
((dp2548
I00
I197
sI01
I1
stp2549
Rp2550
sg25
I2
sg26
F199.0
sbs(g8
S'hold'
p2551
tp2552
g0
(g14
g2
Ntp2553
Rp2554
(dp2555
g18
F0.5
sg19
I63
sg20
g21
((dp2556
I00
I63
stp2557
Rp2558
sg25
I2
sg26
F64.0
sbs(g8
S'ppl'
p2559
tp2560
g0
(g14
g2
Ntp2561
Rp2562
(dp2563
g18
F0.5
sg19
I63
sg20
g21
((dp2564
I00
I61
sI01
I2
stp2565
Rp2566
sg25
I2
sg26
F64.0
sbs(g9
g1936
tp2567
g0
(g14
g2
Ntp2568
Rp2569
(dp2570
g18
F0.5
sg19
I198
sg20
g21
((dp2571
I00
I198
stp2572
Rp2573
sg25
I2
sg26
F199.0
sbs(g8
g1342
tp2574
g0
(g14
g2
Ntp2575
Rp2576
(dp2577
g18
F0.5
sg19
I63
sg20
g21
((dp2578
I00
I62
sI01
I1
stp2579
Rp2580
sg25
I2
sg26
F64.0
sbs(g8
S'miss'
p2581
tp2582
g0
(g14
g2
Ntp2583
Rp2584
(dp2585
g18
F0.5
sg19
I63
sg20
g21
((dp2586
I00
I63
stp2587
Rp2588
sg25
I2
sg26
F64.0
sbs(g9
S'backs'
p2589
tp2590
g0
(g14
g2
Ntp2591
Rp2592
(dp2593
g18
F0.5
sg19
I198
sg20
g21
((dp2594
I00
I197
sI01
I1
stp2595
Rp2596
sg25
I2
sg26
F199.0
sbs(g9
g163
tp2597
g0
(g14
g2
Ntp2598
Rp2599
(dp2600
g18
F0.5
sg19
I198
sg20
g21
((dp2601
I00
I197
sI01
I1
stp2602
Rp2603
sg25
I2
sg26
F199.0
sbs(g8
S'crm'
p2604
tp2605
g0
(g14
g2
Ntp2606
Rp2607
(dp2608
g18
F0.5
sg19
I63
sg20
g21
((dp2609
I00
I63
stp2610
Rp2611
sg25
I2
sg26
F64.0
sbs(g8
g666
tp2612
g0
(g14
g2
Ntp2613
Rp2614
(dp2615
g18
F0.5
sg19
I63
sg20
g21
((dp2616
I00
I61
sI01
I2
stp2617
Rp2618
sg25
I2
sg26
F64.0
sbs(g8
g1709
tp2619
g0
(g14
g2
Ntp2620
Rp2621
(dp2622
g18
F0.5
sg19
I63
sg20
g21
((dp2623
I00
I61
sI01
I2
stp2624
Rp2625
sg25
I2
sg26
F64.0
sbs(g9
S'bad'
p2626
tp2627
g0
(g14
g2
Ntp2628
Rp2629
(dp2630
g18
F0.5
sg19
I198
sg20
g21
((dp2631
I00
I198
stp2632
Rp2633
sg25
I2
sg26
F199.0
sbs(g9
S'yet'
p2634
tp2635
g0
(g14
g2
Ntp2636
Rp2637
(dp2638
g18
F0.5
sg19
I198
sg20
g21
((dp2639
I00
I198
stp2640
Rp2641
sg25
I2
sg26
F199.0
sbs(g9
S'bullish'
p2642
tp2643
g0
(g14
g2
Ntp2644
Rp2645
(dp2646
g18
F0.5
sg19
I198
sg20
g21
((dp2647
I00
I196
sI01
I2
stp2648
Rp2649
sg25
I2
sg26
F199.0
sbs(g9
S'greedy'
p2650
tp2651
g0
(g14
g2
Ntp2652
Rp2653
(dp2654
g18
F0.5
sg19
I198
sg20
g21
((dp2655
I00
I197
sI01
I1
stp2656
Rp2657
sg25
I2
sg26
F199.0
sbs(g9
S'virajarora'
p2658
tp2659
g0
(g14
g2
Ntp2660
Rp2661
(dp2662
g18
F0.5
sg19
I198
sg20
g21
((dp2663
I00
I198
stp2664
Rp2665
sg25
I2
sg26
F199.0
sbs(g9
S'good'
p2666
tp2667
g0
(g14
g2
Ntp2668
Rp2669
(dp2670
g18
F0.5
sg19
I198
sg20
g21
((dp2671
I00
I194
sI01
I4
stp2672
Rp2673
sg25
I2
sg26
F199.0
sbs(g9
g359
tp2674
g0
(g14
g2
Ntp2675
Rp2676
(dp2677
g18
F0.5
sg19
I198
sg20
g21
((dp2678
I00
I198
stp2679
Rp2680
sg25
I2
sg26
F199.0
sbs(g9
S'were'
p2681
tp2682
g0
(g14
g2
Ntp2683
Rp2684
(dp2685
g18
F0.5
sg19
I198
sg20
g21
((dp2686
I00
I194
sI01
I4
stp2687
Rp2688
sg25
I2
sg26
F199.0
sbs(g8
S'going'
p2689
tp2690
g0
(g14
g2
Ntp2691
Rp2692
(dp2693
g18
F0.5
sg19
I63
sg20
g21
((dp2694
I00
I63
stp2695
Rp2696
sg25
I2
sg26
F64.0
sbs(g9
S'm'
p2697
tp2698
g0
(g14
g2
Ntp2699
Rp2700
(dp2701
g18
F0.5
sg19
I198
sg20
g21
((dp2702
I00
I191
sI01
I7
stp2703
Rp2704
sg25
I2
sg26
F199.0
sbs(g8
g2658
tp2705
g0
(g14
g2
Ntp2706
Rp2707
(dp2708
g18
F0.5
sg19
I63
sg20
g21
((dp2709
I00
I61
sI01
I2
stp2710
Rp2711
sg25
I2
sg26
F64.0
sbs(g8
S'away'
p2712
tp2713
g0
(g14
g2
Ntp2714
Rp2715
(dp2716
g18
F0.5
sg19
I63
sg20
g21
((dp2717
I00
I61
sI01
I2
stp2718
Rp2719
sg25
I2
sg26
F64.0
sbs(g9
S'same'
p2720
tp2721
g0
(g14
g2
Ntp2722
Rp2723
(dp2724
g18
F0.5
sg19
I198
sg20
g21
((dp2725
I00
I197
sI01
I1
stp2726
Rp2727
sg25
I2
sg26
F199.0
sbs(g8
g1334
tp2728
g0
(g14
g2
Ntp2729
Rp2730
(dp2731
g18
F0.5
sg19
I63
sg20
g21
((dp2732
I00
I63
stp2733
Rp2734
sg25
I2
sg26
F64.0
sbs(g8
S'long'
p2735
tp2736
g0
(g14
g2
Ntp2737
Rp2738
(dp2739
g18
F0.5
sg19
I63
sg20
g21
((dp2740
I00
I63
stp2741
Rp2742
sg25
I2
sg26
F64.0
sbs(g9
S'mean'
p2743
tp2744
g0
(g14
g2
Ntp2745
Rp2746
(dp2747
g18
F0.5
sg19
I198
sg20
g21
((dp2748
I00
I196
sI01
I2
stp2749
Rp2750
sg25
I2
sg26
F199.0
sbs(g9
g604
tp2751
g0
(g14
g2
Ntp2752
Rp2753
(dp2754
g18
F0.5
sg19
I198
sg20
g21
((dp2755
I00
I198
stp2756
Rp2757
sg25
I1
sg26
F198.5
sbs(g8
S'dominant'
p2758
tp2759
g0
(g14
g2
Ntp2760
Rp2761
(dp2762
g18
F0.5
sg19
I63
sg20
g21
((dp2763
I00
I63
stp2764
Rp2765
sg25
I1
sg26
F63.5
sbs(g9
g1631
tp2766
g0
(g14
g2
Ntp2767
Rp2768
(dp2769
g18
F0.5
sg19
I198
sg20
g21
((dp2770
I00
I196
sI01
I2
stp2771
Rp2772
sg25
I2
sg26
F199.0
sbs(g8
S'honestly'
p2773
tp2774
g0
(g14
g2
Ntp2775
Rp2776
(dp2777
g18
F0.5
sg19
I63
sg20
g21
((dp2778
I00
I63
stp2779
Rp2780
sg25
I2
sg26
F64.0
sbs(g8
S'nice'
p2781
tp2782
g0
(g14
g2
Ntp2783
Rp2784
(dp2785
g18
F0.5
sg19
I63
sg20
g21
((dp2786
I00
I63
stp2787
Rp2788
sg25
I2
sg26
F64.0
sbs(g9
S'noticed'
p2789
tp2790
g0
(g14
g2
Ntp2791
Rp2792
(dp2793
g18
F0.5
sg19
I198
sg20
g21
((dp2794
I00
I197
sI01
I1
stp2795
Rp2796
sg25
I2
sg26
F199.0
sbs(g9
S'maybe'
p2797
tp2798
g0
(g14
g2
Ntp2799
Rp2800
(dp2801
g18
F0.5
sg19
I198
sg20
g21
((dp2802
I00
I198
stp2803
Rp2804
sg25
I1
sg26
F198.5
sbs(g8
S'excellent'
p2805
tp2806
g0
(g14
g2
Ntp2807
Rp2808
(dp2809
g18
F0.5
sg19
I63
sg20
g21
((dp2810
I00
I63
stp2811
Rp2812
sg25
I2
sg26
F64.0
sbs(g8
S'search'
p2813
tp2814
g0
(g14
g2
Ntp2815
Rp2816
(dp2817
g18
F0.5
sg19
I63
sg20
g21
((dp2818
I00
I63
stp2819
Rp2820
sg25
I2
sg26
F64.0
sbs(g8
S'release'
p2821
tp2822
g0
(g14
g2
Ntp2823
Rp2824
(dp2825
g18
F0.5
sg19
I63
sg20
g21
((dp2826
I00
I63
stp2827
Rp2828
sg25
I2
sg26
F64.0
sbs(g9
g2038
tp2829
g0
(g14
g2
Ntp2830
Rp2831
(dp2832
g18
F0.5
sg19
I198
sg20
g21
((dp2833
I00
I197
sI01
I1
stp2834
Rp2835
sg25
I2
sg26
F199.0
sbs(g9
g1655
tp2836
g0
(g14
g2
Ntp2837
Rp2838
(dp2839
g18
F0.5
sg19
I198
sg20
g21
((dp2840
I00
I196
sI01
I2
stp2841
Rp2842
sg25
I2
sg26
F199.0
sbs(g8
S'worse'
p2843
tp2844
g0
(g14
g2
Ntp2845
Rp2846
(dp2847
g18
F0.5
sg19
I63
sg20
g21
((dp2848
I00
I63
stp2849
Rp2850
sg25
I2
sg26
F64.0
sbs(g9
S'common'
p2851
tp2852
g0
(g14
g2
Ntp2853
Rp2854
(dp2855
g18
F0.5
sg19
I198
sg20
g21
((dp2856
I00
I197
sI01
I1
stp2857
Rp2858
sg25
I2
sg26
F199.0
sbs(g8
S'few'
p2859
tp2860
g0
(g14
g2
Ntp2861
Rp2862
(dp2863
g18
F0.5
sg19
I63
sg20
g21
((dp2864
I00
I63
stp2865
Rp2866
sg25
I2
sg26
F64.0
sbs(g9
S'utm_campaign=sad_tech_for_income'
p2867
tp2868
g0
(g14
g2
Ntp2869
Rp2870
(dp2871
g18
F0.5
sg19
I198
sg20
g21
((dp2872
I00
I198
stp2873
Rp2874
sg25
I1
sg26
F198.5
sbs(g9
S'hits'
p2875
tp2876
g0
(g14
g2
Ntp2877
Rp2878
(dp2879
g18
F0.5
sg19
I198
sg20
g21
((dp2880
I00
I197
sI01
I1
stp2881
Rp2882
sg25
I2
sg26
F199.0
sbs(g9
S'crack'
p2883
tp2884
g0
(g14
g2
Ntp2885
Rp2886
(dp2887
g18
F0.5
sg19
I198
sg20
g21
((dp2888
I00
I197
sI01
I1
stp2889
Rp2890
sg25
I2
sg26
F199.0
sbs(g9
S'small'
p2891
tp2892
g0
(g14
g2
Ntp2893
Rp2894
(dp2895
g18
F0.5
sg19
I198
sg20
g21
((dp2896
I00
I197
sI01
I1
stp2897
Rp2898
sg25
I2
sg26
F199.0
sbs(g8
S'provide'
p2899
tp2900
g0
(g14
g2
Ntp2901
Rp2902
(dp2903
g18
F0.5
sg19
I63
sg20
g21
((dp2904
I00
I61
sI01
I2
stp2905
Rp2906
sg25
I2
sg26
F64.0
sbs(g8
S'arguments'
p2907
tp2908
g0
(g14
g2
Ntp2909
Rp2910
(dp2911
g18
F0.5
sg19
I63
sg20
g21
((dp2912
I00
I63
stp2913
Rp2914
sg25
I2
sg26
F64.0
sbs(g9
g2347
tp2915
g0
(g14
g2
Ntp2916
Rp2917
(dp2918
g18
F0.5
sg19
I198
sg20
g21
((dp2919
I00
I196
sI01
I2
stp2920
Rp2921
sg25
I2
sg26
F199.0
sbs(g9
g2821
tp2922
g0
(g14
g2
Ntp2923
Rp2924
(dp2925
g18
F0.5
sg19
I198
sg20
g21
((dp2926
I00
I194
sI01
I4
stp2927
Rp2928
sg25
I2
sg26
F199.0
sbs(g8
S'ethanol'
p2929
tp2930
g0
(g14
g2
Ntp2931
Rp2932
(dp2933
g18
F0.5
sg19
I63
sg20
g21
((dp2934
I00
I63
stp2935
Rp2936
sg25
I2
sg26
F64.0
sbs(g9
g2492
tp2937
g0
(g14
g2
Ntp2938
Rp2939
(dp2940
g18
F0.5
sg19
I198
sg20
g21
((dp2941
I00
I196
sI01
I2
stp2942
Rp2943
sg25
I2
sg26
F199.0
sbs(g9
g2247
tp2944
g0
(g14
g2
Ntp2945
Rp2946
(dp2947
g18
F0.5
sg19
I198
sg20
g21
((dp2948
I00
I194
sI01
I4
stp2949
Rp2950
sg25
I2
sg26
F199.0
sbs(g9
S'overplayed'
p2951
tp2952
g0
(g14
g2
Ntp2953
Rp2954
(dp2955
g18
F0.5
sg19
I198
sg20
g21
((dp2956
I00
I198
stp2957
Rp2958
sg25
I1
sg26
F198.5
sbs(g9
S'display'
p2959
tp2960
g0
(g14
g2
Ntp2961
Rp2962
(dp2963
g18
F0.5
sg19
I198
sg20
g21
((dp2964
I00
I198
stp2965
Rp2966
sg25
I2
sg26
F199.0
sbs(g8
S'said'
p2967
tp2968
g0
(g14
g2
Ntp2969
Rp2970
(dp2971
g18
F0.5
sg19
I63
sg20
g21
((dp2972
I00
I63
stp2973
Rp2974
sg25
I2
sg26
F64.0
sbs(g9
S'overstated'
p2975
tp2976
g0
(g14
g2
Ntp2977
Rp2978
(dp2979
g18
F0.5
sg19
I198
sg20
g21
((dp2980
I00
I198
stp2981
Rp2982
sg25
I2
sg26
F199.0
sbs(g9
g2394
tp2983
g0
(g14
g2
Ntp2984
Rp2985
(dp2986
g18
F0.5
sg19
I198
sg20
g21
((dp2987
I00
I191
sI01
I7
stp2988
Rp2989
sg25
I2
sg26
F199.0
sbs(g9
g936
tp2990
g0
(g14
g2
Ntp2991
Rp2992
(dp2993
g18
F0.5
sg19
I198
sg20
g21
((dp2994
I00
I198
stp2995
Rp2996
sg25
I1
sg26
F198.5
sbs(g8
S'ragging'
p2997
tp2998
g0
(g14
g2
Ntp2999
Rp3000
(dp3001
g18
F0.5
sg19
I63
sg20
g21
((dp3002
I00
I63
stp3003
Rp3004
sg25
I2
sg26
F64.0
sbs(g8
S'most'
p3005
tp3006
g0
(g14
g2
Ntp3007
Rp3008
(dp3009
g18
F0.5
sg19
I63
sg20
g21
((dp3010
I00
I63
stp3011
Rp3012
sg25
I2
sg26
F64.0
sbs(g9
S'are'
p3013
tp3014
g0
(g14
g2
Ntp3015
Rp3016
(dp3017
g18
F0.5
sg19
I198
sg20
g21
((dp3018
I00
I188
sI01
I10
stp3019
Rp3020
sg25
I2
sg26
F199.0
sbs(g8
g2433
tp3021
g0
(g14
g2
Ntp3022
Rp3023
(dp3024
g18
F0.5
sg19
I63
sg20
g21
((dp3025
I00
I63
stp3026
Rp3027
sg25
I1
sg26
F63.5
sbs(g9
S'reasonable'
p3028
tp3029
g0
(g14
g2
Ntp3030
Rp3031
(dp3032
g18
F0.5
sg19
I198
sg20
g21
((dp3033
I00
I197
sI01
I1
stp3034
Rp3035
sg25
I2
sg26
F199.0
sbs(g8
g1544
tp3036
g0
(g14
g2
Ntp3037
Rp3038
(dp3039
g18
F0.5
sg19
I63
sg20
g21
((dp3040
I00
I63
stp3041
Rp3042
sg25
I2
sg26
F64.0
sbs(g8
g801
tp3043
g0
(g14
g2
Ntp3044
Rp3045
(dp3046
g18
F0.5
sg19
I63
sg20
g21
((dp3047
I00
I57
sI01
I6
stp3048
Rp3049
sg25
I2
sg26
F64.0
sbs(g8
S'suprised'
p3050
tp3051
g0
(g14
g2
Ntp3052
Rp3053
(dp3054
g18
F0.5
sg19
I63
sg20
g21
((dp3055
I00
I63
stp3056
Rp3057
sg25
I2
sg26
F64.0
sbs(g8
S'did'
p3058
tp3059
g0
(g14
g2
Ntp3060
Rp3061
(dp3062
g18
F0.5
sg19
I63
sg20
g21
((dp3063
I00
I63
stp3064
Rp3065
sg25
I1
sg26
F63.5
sbs(g9
g1817
tp3066
g0
(g14
g2
Ntp3067
Rp3068
(dp3069
g18
F0.5
sg19
I198
sg20
g21
((dp3070
I00
I197
sI01
I1
stp3071
Rp3072
sg25
I2
sg26
F199.0
sbs(g8
g1825
tp3073
g0
(g14
g2
Ntp3074
Rp3075
(dp3076
g18
F0.5
sg19
I63
sg20
g21
((dp3077
I00
I63
stp3078
Rp3079
sg25
I2
sg26
F64.0
sbs(g9
S'work'
p3080
tp3081
g0
(g14
g2
Ntp3082
Rp3083
(dp3084
g18
F0.5
sg19
I198
sg20
g21
((dp3085
I00
I197
sI01
I1
stp3086
Rp3087
sg25
I2
sg26
F199.0
sbs(g9
S'ever'
p3088
tp3089
g0
(g14
g2
Ntp3090
Rp3091
(dp3092
g18
F0.5
sg19
I198
sg20
g21
((dp3093
I00
I197
sI01
I1
stp3094
Rp3095
sg25
I2
sg26
F199.0
sbs(g9
S'too'
p3096
tp3097
g0
(g14
g2
Ntp3098
Rp3099
(dp3100
g18
F0.5
sg19
I198
sg20
g21
((dp3101
I00
I196
sI01
I2
stp3102
Rp3103
sg25
I2
sg26
F199.0
sbs(g9
g612
tp3104
g0
(g14
g2
Ntp3105
Rp3106
(dp3107
g18
F0.5
sg19
I198
sg20
g21
((dp3108
I00
I197
sI01
I1
stp3109
Rp3110
sg25
I2
sg26
F199.0
sbs(g9
S'chart'
p3111
tp3112
g0
(g14
g2
Ntp3113
Rp3114
(dp3115
g18
F0.5
sg19
I198
sg20
g21
((dp3116
I00
I196
sI01
I2
stp3117
Rp3118
sg25
I2
sg26
F199.0
sbs(g8
g1256
tp3119
g0
(g14
g2
Ntp3120
Rp3121
(dp3122
g18
F0.5
sg19
I63
sg20
g21
((dp3123
I00
I60
sI01
I3
stp3124
Rp3125
sg25
I2
sg26
F64.0
sbs(g9
S'takes'
p3126
tp3127
g0
(g14
g2
Ntp3128
Rp3129
(dp3130
g18
F0.5
sg19
I198
sg20
g21
((dp3131
I00
I197
sI01
I1
stp3132
Rp3133
sg25
I2
sg26
F199.0
sbs(g9
S'back'
p3134
tp3135
g0
(g14
g2
Ntp3136
Rp3137
(dp3138
g18
F0.5
sg19
I198
sg20
g21
((dp3139
I00
I191
sI01
I7
stp3140
Rp3141
sg25
I2
sg26
F199.0
sbs(g9
g2929
tp3142
g0
(g14
g2
Ntp3143
Rp3144
(dp3145
g18
F0.5
sg19
I198
sg20
g21
((dp3146
I00
I197
sI01
I1
stp3147
Rp3148
sg25
I2
sg26
F199.0
sbs(g9
S'still'
p3149
tp3150
g0
(g14
g2
Ntp3151
Rp3152
(dp3153
g18
F0.5
sg19
I198
sg20
g21
((dp3154
I00
I193
sI01
I5
stp3155
Rp3156
sg25
I2
sg26
F199.0
sbs(g8
S'moving'
p3157
tp3158
g0
(g14
g2
Ntp3159
Rp3160
(dp3161
g18
F0.5
sg19
I63
sg20
g21
((dp3162
I00
I63
stp3163
Rp3164
sg25
I2
sg26
F64.0
sbs(g9
S'perked'
p3165
tp3166
g0
(g14
g2
Ntp3167
Rp3168
(dp3169
g18
F0.5
sg19
I198
sg20
g21
((dp3170
I00
I197
sI01
I1
stp3171
Rp3172
sg25
I2
sg26
F199.0
sbs(g9
S'//investoralmanac.com/2017/09/16/once-in-an-investment-lifetime-opportunity-to-profit-in-commodities/'
p3173
tp3174
g0
(g14
g2
Ntp3175
Rp3176
(dp3177
g18
F0.5
sg19
I198
sg20
g21
((dp3178
I00
I196
sI01
I2
stp3179
Rp3180
sg25
I2
sg26
F199.0
sbs(g9
S'adjust'
p3181
tp3182
g0
(g14
g2
Ntp3183
Rp3184
(dp3185
g18
F0.5
sg19
I198
sg20
g21
((dp3186
I00
I197
sI01
I1
stp3187
Rp3188
sg25
I2
sg26
F199.0
sbs(g9
S'breakout'
p3189
tp3190
g0
(g14
g2
Ntp3191
Rp3192
(dp3193
g18
F0.5
sg19
I198
sg20
g21
((dp3194
I00
I195
sI01
I3
stp3195
Rp3196
sg25
I2
sg26
F199.0
sbs(g9
g431
tp3197
g0
(g14
g2
Ntp3198
Rp3199
(dp3200
g18
F0.5
sg19
I198
sg20
g21
((dp3201
I00
I198
stp3202
Rp3203
sg25
I1
sg26
F198.5
sbs(g9
S'technical'
p3204
tp3205
g0
(g14
g2
Ntp3206
Rp3207
(dp3208
g18
F0.5
sg19
I198
sg20
g21
((dp3209
I00
I197
sI01
I1
stp3210
Rp3211
sg25
I2
sg26
F199.0
sbs(g8
S'telling'
p3212
tp3213
g0
(g14
g2
Ntp3214
Rp3215
(dp3216
g18
F0.5
sg19
I63
sg20
g21
((dp3217
I00
I61
sI01
I2
stp3218
Rp3219
sg25
I2
sg26
F64.0
sbs(g8
S'land'
p3220
tp3221
g0
(g14
g2
Ntp3222
Rp3223
(dp3224
g18
F0.5
sg19
I63
sg20
g21
((dp3225
I00
I63
stp3226
Rp3227
sg25
I2
sg26
F64.0
sbs(g8
g2720
tp3228
g0
(g14
g2
Ntp3229
Rp3230
(dp3231
g18
F0.5
sg19
I63
sg20
g21
((dp3232
I00
I62
sI01
I1
stp3233
Rp3234
sg25
I2
sg26
F64.0
sbs(g8
g2102
tp3235
g0
(g14
g2
Ntp3236
Rp3237
(dp3238
g18
F0.5
sg19
I63
sg20
g21
((dp3239
I00
I61
sI01
I2
stp3240
Rp3241
sg25
I2
sg26
F64.0
sbs(g9
g1326
tp3242
g0
(g14
g2
Ntp3243
Rp3244
(dp3245
g18
F0.5
sg19
I198
sg20
g21
((dp3246
I00
I197
sI01
I1
stp3247
Rp3248
sg25
I2
sg26
F199.0
sbs(g9
S'real'
p3249
tp3250
g0
(g14
g2
Ntp3251
Rp3252
(dp3253
g18
F0.5
sg19
I198
sg20
g21
((dp3254
I00
I197
sI01
I1
stp3255
Rp3256
sg25
I2
sg26
F199.0
sbs(g9
S'dropped'
p3257
tp3258
g0
(g14
g2
Ntp3259
Rp3260
(dp3261
g18
F0.5
sg19
I198
sg20
g21
((dp3262
I00
I198
stp3263
Rp3264
sg25
I2
sg26
F199.0
sbs(g9
S'adding'
p3265
tp3266
g0
(g14
g2
Ntp3267
Rp3268
(dp3269
g18
F0.5
sg19
I198
sg20
g21
((dp3270
I00
I197
sI01
I1
stp3271
Rp3272
sg25
I2
sg26
F199.0
sbs(g8
S'finally'
p3273
tp3274
g0
(g14
g2
Ntp3275
Rp3276
(dp3277
g18
F0.5
sg19
I63
sg20
g21
((dp3278
I00
I63
stp3279
Rp3280
sg25
I2
sg26
F64.0
sbs(g9
g1671
tp3281
g0
(g14
g2
Ntp3282
Rp3283
(dp3284
g18
F0.5
sg19
I198
sg20
g21
((dp3285
I00
I197
sI01
I1
stp3286
Rp3287
sg25
I2
sg26
F199.0
sbs(g8
S'almost'
p3288
tp3289
g0
(g14
g2
Ntp3290
Rp3291
(dp3292
g18
F0.5
sg19
I63
sg20
g21
((dp3293
I00
I63
stp3294
Rp3295
sg25
I2
sg26
F64.0
sbs(g8
S'great'
p3296
tp3297
g0
(g14
g2
Ntp3298
Rp3299
(dp3300
g18
F0.5
sg19
I63
sg20
g21
((dp3301
I00
I63
stp3302
Rp3303
sg25
I2
sg26
F64.0
sbs(g9
S'feeling'
p3304
tp3305
g0
(g14
g2
Ntp3306
Rp3307
(dp3308
g18
F0.5
sg19
I198
sg20
g21
((dp3309
I00
I197
sI01
I1
stp3310
Rp3311
sg25
I2
sg26
F199.0
sbs(g9
g558
tp3312
g0
(g14
g2
Ntp3313
Rp3314
(dp3315
g18
F0.5
sg19
I198
sg20
g21
((dp3316
I00
I197
sI01
I1
stp3317
Rp3318
sg25
I2
sg26
F199.0
sbs(g8
S'ing'
p3319
tp3320
g0
(g14
g2
Ntp3321
Rp3322
(dp3323
g18
F0.5
sg19
I63
sg20
g21
((dp3324
I00
I62
sI01
I1
stp3325
Rp3326
sg25
I2
sg26
F64.0
sbs(g8
g3257
tp3327
g0
(g14
g2
Ntp3328
Rp3329
(dp3330
g18
F0.5
sg19
I63
sg20
g21
((dp3331
I00
I59
sI01
I4
stp3332
Rp3333
sg25
I2
sg26
F64.0
sbs(g9
g713
tp3334
g0
(g14
g2
Ntp3335
Rp3336
(dp3337
g18
F0.5
sg19
I198
sg20
g21
((dp3338
I00
I197
sI01
I1
stp3339
Rp3340
sg25
I2
sg26
F199.0
sbs(g9
S'depend'
p3341
tp3342
g0
(g14
g2
Ntp3343
Rp3344
(dp3345
g18
F0.5
sg19
I198
sg20
g21
((dp3346
I00
I197
sI01
I1
stp3347
Rp3348
sg25
I2
sg26
F199.0
sbs(g9
g2140
tp3349
g0
(g14
g2
Ntp3350
Rp3351
(dp3352
g18
F0.5
sg19
I198
sg20
g21
((dp3353
I00
I198
stp3354
Rp3355
sg25
I1
sg26
F198.5
sbs(g9
g2773
tp3356
g0
(g14
g2
Ntp3357
Rp3358
(dp3359
g18
F0.5
sg19
I198
sg20
g21
((dp3360
I00
I197
sI01
I1
stp3361
Rp3362
sg25
I2
sg26
F199.0
sbs(g9
g320
tp3363
g0
(g14
g2
Ntp3364
Rp3365
(dp3366
g18
F0.5
sg19
I198
sg20
g21
((dp3367
I00
I198
stp3368
Rp3369
sg25
I2
sg26
F199.0
sbs(g8
S'propelled'
p3370
tp3371
g0
(g14
g2
Ntp3372
Rp3373
(dp3374
g18
F0.5
sg19
I63
sg20
g21
((dp3375
I00
I63
stp3376
Rp3377
sg25
I2
sg26
F64.0
sbs(g8
S'//www.livetradingnews.com/focus-gold-silver-precious-metals-mining-royalty-streaming-54897.html'
p3378
tp3379
g0
(g14
g2
Ntp3380
Rp3381
(dp3382
g18
F0.5
sg19
I63
sg20
g21
((dp3383
I00
I63
stp3384
Rp3385
sg25
I2
sg26
F64.0
sbs(g8
S'now'
p3386
tp3387
g0
(g14
g2
Ntp3388
Rp3389
(dp3390
g18
F0.5
sg19
I63
sg20
g21
((dp3391
I00
I61
sI01
I2
stp3392
Rp3393
sg25
I2
sg26
F64.0
sbs(g9
g3157
tp3394
g0
(g14
g2
Ntp3395
Rp3396
(dp3397
g18
F0.5
sg19
I198
sg20
g21
((dp3398
I00
I195
sI01
I3
stp3399
Rp3400
sg25
I2
sg26
F199.0
sbs(g8
S'blown'
p3401
tp3402
g0
(g14
g2
Ntp3403
Rp3404
(dp3405
g18
F0.5
sg19
I63
sg20
g21
((dp3406
I00
I63
stp3407
Rp3408
sg25
I2
sg26
F64.0
sbs(g9
S'challenging'
p3409
tp3410
g0
(g14
g2
Ntp3411
Rp3412
(dp3413
g18
F0.5
sg19
I198
sg20
g21
((dp3414
I00
I197
sI01
I1
stp3415
Rp3416
sg25
I2
sg26
F199.0
sbs(g8
g282
tp3417
g0
(g14
g2
Ntp3418
Rp3419
(dp3420
g18
F0.5
sg19
I63
sg20
g21
((dp3421
I00
I63
stp3422
Rp3423
sg25
I2
sg26
F64.0
sbs(g9
g992
tp3424
g0
(g14
g2
Ntp3425
Rp3426
(dp3427
g18
F0.5
sg19
I198
sg20
g21
((dp3428
I00
I197
sI01
I1
stp3429
Rp3430
sg25
I2
sg26
F199.0
sbs(g8
S'humble'
p3431
tp3432
g0
(g14
g2
Ntp3433
Rp3434
(dp3435
g18
F0.5
sg19
I63
sg20
g21
((dp3436
I00
I63
stp3437
Rp3438
sg25
I2
sg26
F64.0
sbs(g8
g1466
tp3439
g0
(g14
g2
Ntp3440
Rp3441
(dp3442
g18
F0.5
sg19
I63
sg20
g21
((dp3443
I00
I61
sI01
I2
stp3444
Rp3445
sg25
I2
sg26
F64.0
sbs(g9
S'built'
p3446
tp3447
g0
(g14
g2
Ntp3448
Rp3449
(dp3450
g18
F0.5
sg19
I198
sg20
g21
((dp3451
I00
I198
stp3452
Rp3453
sg25
I2
sg26
F199.0
sbs(g8
g1583
tp3454
g0
(g14
g2
Ntp3455
Rp3456
(dp3457
g18
F0.5
sg19
I63
sg20
g21
((dp3458
I00
I63
stp3459
Rp3460
sg25
I1
sg26
F63.5
sbs(g8
g43
tp3461
g0
(g14
g2
Ntp3462
Rp3463
(dp3464
g18
F0.5
sg19
I63
sg20
g21
((dp3465
I00
I63
stp3466
Rp3467
sg25
I2
sg26
F64.0
sbs(g9
g1849
tp3468
g0
(g14
g2
Ntp3469
Rp3470
(dp3471
g18
F0.5
sg19
I198
sg20
g21
((dp3472
I00
I196
sI01
I2
stp3473
Rp3474
sg25
I2
sg26
F199.0
sbs(g8
g1489
tp3475
g0
(g14
g2
Ntp3476
Rp3477
(dp3478
g18
F0.5
sg19
I63
sg20
g21
((dp3479
I00
I63
stp3480
Rp3481
sg25
I1
sg26
F63.5
sbs(g9
g1928
tp3482
g0
(g14
g2
Ntp3483
Rp3484
(dp3485
g18
F0.5
sg19
I198
sg20
g21
((dp3486
I00
I196
sI01
I2
stp3487
Rp3488
sg25
I2
sg26
F199.0
sbs(g9
S'has'
p3489
tp3490
g0
(g14
g2
Ntp3491
Rp3492
(dp3493
g18
F0.5
sg19
I198
sg20
g21
((dp3494
I00
I189
sI01
I9
stp3495
Rp3496
sg25
I2
sg26
F199.0
sbs(g9
g3005
tp3497
g0
(g14
g2
Ntp3498
Rp3499
(dp3500
g18
F0.5
sg19
I198
sg20
g21
((dp3501
I00
I197
sI01
I1
stp3502
Rp3503
sg25
I2
sg26
F199.0
sbs(g8
S'betting'
p3504
tp3505
g0
(g14
g2
Ntp3506
Rp3507
(dp3508
g18
F0.5
sg19
I63
sg20
g21
((dp3509
I00
I61
sI01
I2
stp3510
Rp3511
sg25
I2
sg26
F64.0
sbs(g9
S'very'
p3512
tp3513
g0
(g14
g2
Ntp3514
Rp3515
(dp3516
g18
F0.5
sg19
I198
sg20
g21
((dp3517
I00
I195
sI01
I3
stp3518
Rp3519
sg25
I2
sg26
F199.0
sbs(g9
g123
tp3520
g0
(g14
g2
Ntp3521
Rp3522
(dp3523
g18
F0.5
sg19
I198
sg20
g21
((dp3524
I00
I195
sI01
I3
stp3525
Rp3526
sg25
I2
sg26
F199.0
sbs(g9
S'resume'
p3527
tp3528
g0
(g14
g2
Ntp3529
Rp3530
(dp3531
g18
F0.5
sg19
I198
sg20
g21
((dp3532
I00
I197
sI01
I1
stp3533
Rp3534
sg25
I2
sg26
F199.0
sbs(g8
S'sure'
p3535
tp3536
g0
(g14
g2
Ntp3537
Rp3538
(dp3539
g18
F0.5
sg19
I63
sg20
g21
((dp3540
I00
I63
stp3541
Rp3542
sg25
I2
sg26
F64.0
sbs(g9
g2417
tp3543
g0
(g14
g2
Ntp3544
Rp3545
(dp3546
g18
F0.5
sg19
I198
sg20
g21
((dp3547
I00
I197
sI01
I1
stp3548
Rp3549
sg25
I2
sg26
F199.0
sbs(g9
g857
tp3550
g0
(g14
g2
Ntp3551
Rp3552
(dp3553
g18
F0.5
sg19
I198
sg20
g21
((dp3554
I00
I197
sI01
I1
stp3555
Rp3556
sg25
I2
sg26
F199.0
sbs(g8
S'forecast'
p3557
tp3558
g0
(g14
g2
Ntp3559
Rp3560
(dp3561
g18
F0.5
sg19
I63
sg20
g21
((dp3562
I00
I62
sI01
I1
stp3563
Rp3564
sg25
I2
sg26
F64.0
sbs(g9
g2907
tp3565
g0
(g14
g2
Ntp3566
Rp3567
(dp3568
g18
F0.5
sg19
I198
sg20
g21
((dp3569
I00
I197
sI01
I1
stp3570
Rp3571
sg25
I2
sg26
F199.0
sbs(g9
S'suxs'
p3572
tp3573
g0
(g14
g2
Ntp3574
Rp3575
(dp3576
g18
F0.5
sg19
I198
sg20
g21
((dp3577
I00
I198
stp3578
Rp3579
sg25
I2
sg26
F199.0
sbs(g9
S'design'
p3580
tp3581
g0
(g14
g2
Ntp3582
Rp3583
(dp3584
g18
F0.5
sg19
I198
sg20
g21
((dp3585
I00
I198
stp3586
Rp3587
sg25
I2
sg26
F199.0
sbs(g8
g3088
tp3588
g0
(g14
g2
Ntp3589
Rp3590
(dp3591
g18
F0.5
sg19
I63
sg20
g21
((dp3592
I00
I63
stp3593
Rp3594
sg25
I2
sg26
F64.0
sbs(g9
S'lose'
p3595
tp3596
g0
(g14
g2
Ntp3597
Rp3598
(dp3599
g18
F0.5
sg19
I198
sg20
g21
((dp3600
I00
I198
stp3601
Rp3602
sg25
I1
sg26
F198.5
sbs(g9
S'discussed'
p3603
tp3604
g0
(g14
g2
Ntp3605
Rp3606
(dp3607
g18
F0.5
sg19
I198
sg20
g21
((dp3608
I00
I196
sI01
I2
stp3609
Rp3610
sg25
I2
sg26
F199.0
sbs(g8
g2317
tp3611
g0
(g14
g2
Ntp3612
Rp3613
(dp3614
g18
F0.5
sg19
I63
sg20
g21
((dp3615
I00
I62
sI01
I1
stp3616
Rp3617
sg25
I2
sg26
F64.0
sbs(g9
S'down'
p3618
tp3619
g0
(g14
g2
Ntp3620
Rp3621
(dp3622
g18
F0.5
sg19
I198
sg20
g21
((dp3623
I00
I194
sI01
I4
stp3624
Rp3625
sg25
I2
sg26
F199.0
sbs(g8
g3265
tp3626
g0
(g14
g2
Ntp3627
Rp3628
(dp3629
g18
F0.5
sg19
I63
sg20
g21
((dp3630
I00
I63
stp3631
Rp3632
sg25
I2
sg26
F64.0
sbs(g8
S'well'
p3633
tp3634
g0
(g14
g2
Ntp3635
Rp3636
(dp3637
g18
F0.5
sg19
I63
sg20
g21
((dp3638
I00
I62
sI01
I1
stp3639
Rp3640
sg25
I2
sg26
F64.0
sbs(g9
S'wrong'
p3641
tp3642
g0
(g14
g2
Ntp3643
Rp3644
(dp3645
g18
F0.5
sg19
I198
sg20
g21
((dp3646
I00
I198
stp3647
Rp3648
sg25
I2
sg26
F199.0
sbs(g8
S'outweighs'
p3649
tp3650
g0
(g14
g2
Ntp3651
Rp3652
(dp3653
g18
F0.5
sg19
I63
sg20
g21
((dp3654
I00
I63
stp3655
Rp3656
sg25
I2
sg26
F64.0
sbs(g9
S'solid'
p3657
tp3658
g0
(g14
g2
Ntp3659
Rp3660
(dp3661
g18
F0.5
sg19
I198
sg20
g21
((dp3662
I00
I196
sI01
I2
stp3663
Rp3664
sg25
I2
sg26
F199.0
sbs(g9
g1296
tp3665
g0
(g14
g2
Ntp3666
Rp3667
(dp3668
g18
F0.5
sg19
I198
sg20
g21
((dp3669
I00
I193
sI01
I5
stp3670
Rp3671
sg25
I2
sg26
F199.0
sbs(g9
g1304
tp3672
g0
(g14
g2
Ntp3673
Rp3674
(dp3675
g18
F0.5
sg19
I198
sg20
g21
((dp3676
I00
I197
sI01
I1
stp3677
Rp3678
sg25
I2
sg26
F199.0
sbs(g8
g753
tp3679
g0
(g14
g2
Ntp3680
Rp3681
(dp3682
g18
F0.5
sg19
I63
sg20
g21
((dp3683
I00
I63
stp3684
Rp3685
sg25
I2
sg26
F64.0
sbs(g9
g3378
tp3686
g0
(g14
g2
Ntp3687
Rp3688
(dp3689
g18
F0.5
sg19
I198
sg20
g21
((dp3690
I00
I197
sI01
I1
stp3691
Rp3692
sg25
I2
sg26
F199.0
sbs(g8
g3489
tp3693
g0
(g14
g2
Ntp3694
Rp3695
(dp3696
g18
F0.5
sg19
I63
sg20
g21
((dp3697
I00
I56
sI01
I7
stp3698
Rp3699
sg25
I2
sg26
F64.0
sbs(g9
S'compared'
p3700
tp3701
g0
(g14
g2
Ntp3702
Rp3703
(dp3704
g18
F0.5
sg19
I198
sg20
g21
((dp3705
I00
I197
sI01
I1
stp3706
Rp3707
sg25
I2
sg26
F199.0
sbs(g9
S'so'
p3708
tp3709
g0
(g14
g2
Ntp3710
Rp3711
(dp3712
g18
F0.5
sg19
I198
sg20
g21
((dp3713
I00
I194
sI01
I4
stp3714
Rp3715
sg25
I2
sg26
F199.0
sbs(g8
S'//quad7capital.com/2017/09/15/google-might-buy-lyft/'
p3716
tp3717
g0
(g14
g2
Ntp3718
Rp3719
(dp3720
g18
F0.5
sg19
I63
sg20
g21
((dp3721
I00
I63
stp3722
Rp3723
sg25
I2
sg26
F64.0
sbs(g9
S'touch'
p3724
tp3725
g0
(g14
g2
Ntp3726
Rp3727
(dp3728
g18
F0.5
sg19
I198
sg20
g21
((dp3729
I00
I196
sI01
I2
stp3730
Rp3731
sg25
I2
sg26
F199.0
sbs(g9
g3050
tp3732
g0
(g14
g2
Ntp3733
Rp3734
(dp3735
g18
F0.5
sg19
I198
sg20
g21
((dp3736
I00
I197
sI01
I1
stp3737
Rp3738
sg25
I2
sg26
F199.0
sbs(g9
g589
tp3739
g0
(g14
g2
Ntp3740
Rp3741
(dp3742
g18
F0.5
sg19
I198
sg20
g21
((dp3743
I00
I196
sI01
I2
stp3744
Rp3745
sg25
I2
sg26
F199.0
sbs(g9
S'actually'
p3746
tp3747
g0
(g14
g2
Ntp3748
Rp3749
(dp3750
g18
F0.5
sg19
I198
sg20
g21
((dp3751
I00
I197
sI01
I1
stp3752
Rp3753
sg25
I2
sg26
F199.0
sbs(g9
S'many'
p3754
tp3755
g0
(g14
g2
Ntp3756
Rp3757
(dp3758
g18
F0.5
sg19
I198
sg20
g21
((dp3759
I00
I196
sI01
I2
stp3760
Rp3761
sg25
I2
sg26
F199.0
sbs(g9
S'lets'
p3762
tp3763
g0
(g14
g2
Ntp3764
Rp3765
(dp3766
g18
F0.5
sg19
I198
sg20
g21
((dp3767
I00
I198
stp3768
Rp3769
sg25
I2
sg26
F199.0
sbs(g9
S'give'
p3770
tp3771
g0
(g14
g2
Ntp3772
Rp3773
(dp3774
g18
F0.5
sg19
I198
sg20
g21
((dp3775
I00
I198
stp3776
Rp3777
sg25
I1
sg26
F198.5
sbs(g8
S'btc.x'
p3778
tp3779
g0
(g14
g2
Ntp3780
Rp3781
(dp3782
g18
F0.5
sg19
I63
sg20
g21
((dp3783
I00
I63
stp3784
Rp3785
sg25
I2
sg26
F64.0
sbs(g8
g2867
tp3786
g0
(g14
g2
Ntp3787
Rp3788
(dp3789
g18
F0.5
sg19
I63
sg20
g21
((dp3790
I00
I63
stp3791
Rp3792
sg25
I1
sg26
F63.5
sbs(g8
g3341
tp3793
g0
(g14
g2
Ntp3794
Rp3795
(dp3796
g18
F0.5
sg19
I63
sg20
g21
((dp3797
I00
I63
stp3798
Rp3799
sg25
I2
sg26
F64.0
sbs(g9
g2155
tp3800
g0
(g14
g2
Ntp3801
Rp3802
(dp3803
g18
F0.5
sg19
I198
sg20
g21
((dp3804
I00
I169
sI01
I29
stp3805
Rp3806
sg25
I2
sg26
F199.0
sbs(g8
S'strong'
p3807
tp3808
g0
(g14
g2
Ntp3809
Rp3810
(dp3811
g18
F0.5
sg19
I63
sg20
g21
((dp3812
I00
I63
stp3813
Rp3814
sg25
I1
sg26
F63.5
sbs(g8
g1164
tp3815
g0
(g14
g2
Ntp3816
Rp3817
(dp3818
g18
F0.5
sg19
I63
sg20
g21
((dp3819
I00
I62
sI01
I1
stp3820
Rp3821
sg25
I2
sg26
F64.0
sbs(g9
S'surprised'
p3822
tp3823
g0
(g14
g2
Ntp3824
Rp3825
(dp3826
g18
F0.5
sg19
I198
sg20
g21
((dp3827
I00
I198
stp3828
Rp3829
sg25
I2
sg26
F199.0
sbs(g8
g3770
tp3830
g0
(g14
g2
Ntp3831
Rp3832
(dp3833
g18
F0.5
sg19
I63
sg20
g21
((dp3834
I00
I63
stp3835
Rp3836
sg25
I1
sg26
F63.5
sbs(g9
g3386
tp3837
g0
(g14
g2
Ntp3838
Rp3839
(dp3840
g18
F0.5
sg19
I198
sg20
g21
((dp3841
I00
I193
sI01
I5
stp3842
Rp3843
sg25
I2
sg26
F199.0
sbs(g8
g3641
tp3844
g0
(g14
g2
Ntp3845
Rp3846
(dp3847
g18
F0.5
sg19
I63
sg20
g21
((dp3848
I00
I62
sI01
I1
stp3849
Rp3850
sg25
I2
sg26
F64.0
sbs(g8
g3249
tp3851
g0
(g14
g2
Ntp3852
Rp3853
(dp3854
g18
F0.5
sg19
I63
sg20
g21
((dp3855
I00
I63
stp3856
Rp3857
sg25
I2
sg26
F64.0
sbs(g9
S'//www.reuters.com/article/us-china-biofuels-policy/china-set-for-ethanol-binge-as-beijing-pumps-up-renewable-fuel-drive-iduskcn1bo17w'
p3858
tp3859
g0
(g14
g2
Ntp3860
Rp3861
(dp3862
g18
F0.5
sg19
I198
sg20
g21
((dp3863
I00
I198
stp3864
Rp3865
sg25
I1
sg26
F198.5
sbs(g9
g2255
tp3866
g0
(g14
g2
Ntp3867
Rp3868
(dp3869
g18
F0.5
sg19
I198
sg20
g21
((dp3870
I00
I192
sI01
I6
stp3871
Rp3872
sg25
I2
sg26
F199.0
sbs(g8
S'go'
p3873
tp3874
g0
(g14
g2
Ntp3875
Rp3876
(dp3877
g18
F0.5
sg19
I63
sg20
g21
((dp3878
I00
I62
sI01
I1
stp3879
Rp3880
sg25
I2
sg26
F64.0
sbs(g8
g3700
tp3881
g0
(g14
g2
Ntp3882
Rp3883
(dp3884
g18
F0.5
sg19
I63
sg20
g21
((dp3885
I00
I63
stp3886
Rp3887
sg25
I2
sg26
F64.0
sbs(g8
S'utm_medium=email'
p3888
tp3889
g0
(g14
g2
Ntp3890
Rp3891
(dp3892
g18
F0.5
sg19
I63
sg20
g21
((dp3893
I00
I63
stp3894
Rp3895
sg25
I1
sg26
F63.5
sbs(g8
g3111
tp3896
g0
(g14
g2
Ntp3897
Rp3898
(dp3899
g18
F0.5
sg19
I63
sg20
g21
((dp3900
I00
I62
sI01
I1
stp3901
Rp3902
sg25
I2
sg26
F64.0
sbs(g8
g1172
tp3903
g0
(g14
g2
Ntp3904
Rp3905
(dp3906
g18
F0.5
sg19
I63
sg20
g21
((dp3907
I00
I63
stp3908
Rp3909
sg25
I2
sg26
F64.0
sbs(g9
g1599
tp3910
g0
(g14
g2
Ntp3911
Rp3912
(dp3913
g18
F0.5
sg19
I198
sg20
g21
((dp3914
I00
I196
sI01
I2
stp3915
Rp3916
sg25
I2
sg26
F199.0
sbs(g8
g3173
tp3917
g0
(g14
g2
Ntp3918
Rp3919
(dp3920
g18
F0.5
sg19
I63
sg20
g21
((dp3921
I00
I63
stp3922
Rp3923
sg25
I2
sg26
F64.0
sbs(g9
g3807
tp3924
g0
(g14
g2
Ntp3925
Rp3926
(dp3927
g18
F0.5
sg19
I198
sg20
g21
((dp3928
I00
I198
stp3929
Rp3930
sg25
I1
sg26
F198.5
sbs(g9
g1024
tp3931
g0
(g14
g2
Ntp3932
Rp3933
(dp3934
g18
F0.5
sg19
I198
sg20
g21
((dp3935
I00
I197
sI01
I1
stp3936
Rp3937
sg25
I2
sg26
F199.0
sbs(g8
g550
tp3938
g0
(g14
g2
Ntp3939
Rp3940
(dp3941
g18
F0.5
sg19
I63
sg20
g21
((dp3942
I00
I63
stp3943
Rp3944
sg25
I2
sg26
F64.0
sbs(g9
S'increasing'
p3945
tp3946
g0
(g14
g2
Ntp3947
Rp3948
(dp3949
g18
F0.5
sg19
I198
sg20
g21
((dp3950
I00
I197
sI01
I1
stp3951
Rp3952
sg25
I2
sg26
F199.0
sbs(g8
g1623
tp3953
g0
(g14
g2
Ntp3954
Rp3955
(dp3956
g18
F0.5
sg19
I63
sg20
g21
((dp3957
I00
I63
stp3958
Rp3959
sg25
I2
sg26
F64.0
sbs(g8
S'left'
p3960
tp3961
g0
(g14
g2
Ntp3962
Rp3963
(dp3964
g18
F0.5
sg19
I63
sg20
g21
((dp3965
I00
I62
sI01
I1
stp3966
Rp3967
sg25
I2
sg26
F64.0
sbs(g9
S'pinned'
p3968
tp3969
g0
(g14
g2
Ntp3970
Rp3971
(dp3972
g18
F0.5
sg19
I198
sg20
g21
((dp3973
I00
I197
sI01
I1
stp3974
Rp3975
sg25
I2
sg26
F199.0
sbs(g9
g3778
tp3976
g0
(g14
g2
Ntp3977
Rp3978
(dp3979
g18
F0.5
sg19
I198
sg20
g21
((dp3980
I00
I197
sI01
I1
stp3981
Rp3982
sg25
I2
sg26
F199.0
sbs(g8
S'next'
p3983
tp3984
g0
(g14
g2
Ntp3985
Rp3986
(dp3987
g18
F0.5
sg19
I63
sg20
g21
((dp3988
I00
I62
sI01
I1
stp3989
Rp3990
sg25
I2
sg26
F64.0
sbs(g9
S'really'
p3991
tp3992
g0
(g14
g2
Ntp3993
Rp3994
(dp3995
g18
F0.5
sg19
I198
sg20
g21
((dp3996
I00
I197
sI01
I1
stp3997
Rp3998
sg25
I2
sg26
F199.0
sbs(g8
g3149
tp3999
g0
(g14
g2
Ntp4000
Rp4001
(dp4002
g18
F0.5
sg19
I63
sg20
g21
((dp4003
I00
I62
sI01
I1
stp4004
Rp4005
sg25
I2
sg26
F64.0
sbs(g9
g3535
tp4006
g0
(g14
g2
Ntp4007
Rp4008
(dp4009
g18
F0.5
sg19
I198
sg20
g21
((dp4010
I00
I197
sI01
I1
stp4011
Rp4012
sg25
I2
sg26
F199.0
sbs(g8
S'missing'
p4013
tp4014
g0
(g14
g2
Ntp4015
Rp4016
(dp4017
g18
F0.5
sg19
I63
sg20
g21
((dp4018
I00
I62
sI01
I1
stp4019
Rp4020
sg25
I2
sg26
F64.0
sbs(g8
g1419
tp4021
g0
(g14
g2
Ntp4022
Rp4023
(dp4024
g18
F0.5
sg19
I63
sg20
g21
((dp4025
I00
I63
stp4026
Rp4027
sg25
I2
sg26
F64.0
sbs(g9
S'sorry'
p4028
tp4029
g0
(g14
g2
Ntp4030
Rp4031
(dp4032
g18
F0.5
sg19
I198
sg20
g21
((dp4033
I00
I198
stp4034
Rp4035
sg25
I2
sg26
F199.0
sbs(g8
g1763
tp4036
g0
(g14
g2
Ntp4037
Rp4038
(dp4039
g18
F0.5
sg19
I63
sg20
g21
((dp4040
I00
I63
stp4041
Rp4042
sg25
I2
sg26
F64.0
sbs(g8
S'successfully'
p4043
tp4044
g0
(g14
g2
Ntp4045
Rp4046
(dp4047
g18
F0.5
sg19
I63
sg20
g21
((dp4048
I00
I63
stp4049
Rp4050
sg25
I2
sg26
F64.0
sbs(g9
g2455
tp4051
g0
(g14
g2
Ntp4052
Rp4053
(dp4054
g18
F0.5
sg19
I198
sg20
g21
((dp4055
I00
I195
sI01
I3
stp4056
Rp4057
sg25
I2
sg26
F199.0
sbs(g9
S'especially'
p4058
tp4059
g0
(g14
g2
Ntp4060
Rp4061
(dp4062
g18
F0.5
sg19
I198
sg20
g21
((dp4063
I00
I198
stp4064
Rp4065
sg25
I2
sg26
F199.0
sbs(g9
S'been'
p4066
tp4067
g0
(g14
g2
Ntp4068
Rp4069
(dp4070
g18
F0.5
sg19
I198
sg20
g21
((dp4071
I00
I192
sI01
I6
stp4072
Rp4073
sg25
I2
sg26
F199.0
sbs(g8
g305
tp4074
g0
(g14
g2
Ntp4075
Rp4076
(dp4077
g18
F0.5
sg19
I63
sg20
g21
((dp4078
I00
I63
stp4079
Rp4080
sg25
I2
sg26
F64.0
sbs(g9
g1458
tp4081
g0
(g14
g2
Ntp4082
Rp4083
(dp4084
g18
F0.5
sg19
I198
sg20
g21
((dp4085
I00
I197
sI01
I1
stp4086
Rp4087
sg25
I2
sg26
F199.0
sbs(g8
g658
tp4088
g0
(g14
g2
Ntp4089
Rp4090
(dp4091
g18
F0.5
sg19
I63
sg20
g21
((dp4092
I00
I62
sI01
I1
stp4093
Rp4094
sg25
I2
sg26
F64.0
sbs(g8
g2521
tp4095
g0
(g14
g2
Ntp4096
Rp4097
(dp4098
g18
F0.5
sg19
I63
sg20
g21
((dp4099
I00
I62
sI01
I1
stp4100
Rp4101
sg25
I2
sg26
F64.0
sbs(g8
g841
tp4102
g0
(g14
g2
Ntp4103
Rp4104
(dp4105
g18
F0.5
sg19
I63
sg20
g21
((dp4106
I00
I52
sI01
I11
stp4107
Rp4108
sg25
I2
sg26
F64.0
sbs(g9
S'bail'
p4109
tp4110
g0
(g14
g2
Ntp4111
Rp4112
(dp4113
g18
F0.5
sg19
I198
sg20
g21
((dp4114
I00
I197
sI01
I1
stp4115
Rp4116
sg25
I2
sg26
F199.0
sbs(g8
g1841
tp4117
g0
(g14
g2
Ntp4118
Rp4119
(dp4120
g18
F0.5
sg19
I63
sg20
g21
((dp4121
I00
I63
stp4122
Rp4123
sg25
I2
sg26
F64.0
sbs(g8
g3945
tp4124
g0
(g14
g2
Ntp4125
Rp4126
(dp4127
g18
F0.5
sg19
I63
sg20
g21
((dp4128
I00
I63
stp4129
Rp4130
sg25
I2
sg26
F64.0
sbs(g9
g1232
tp4131
g0
(g14
g2
Ntp4132
Rp4133
(dp4134
g18
F0.5
sg19
I198
sg20
g21
((dp4135
I00
I197
sI01
I1
stp4136
Rp4137
sg25
I2
sg26
F199.0
sbs(g8
S'trustworthy'
p4138
tp4139
g0
(g14
g2
Ntp4140
Rp4141
(dp4142
g18
F0.5
sg19
I63
sg20
g21
((dp4143
I00
I63
stp4144
Rp4145
sg25
I2
sg26
F64.0
sbs(g8
g328
tp4146
g0
(g14
g2
Ntp4147
Rp4148
(dp4149
g18
F0.5
sg19
I63
sg20
g21
((dp4150
I00
I62
sI01
I1
stp4151
Rp4152
sg25
I2
sg26
F64.0
sbs(g9
g1984
tp4153
g0
(g14
g2
Ntp4154
Rp4155
(dp4156
g18
F0.5
sg19
I198
sg20
g21
((dp4157
I00
I198
stp4158
Rp4159
sg25
I1
sg26
F198.5
sbs(g9
g2805
tp4160
g0
(g14
g2
Ntp4161
Rp4162
(dp4163
g18
F0.5
sg19
I198
sg20
g21
((dp4164
I00
I197
sI01
I1
stp4165
Rp4166
sg25
I2
sg26
F199.0
sbs(g8
g2529
tp4167
g0
(g14
g2
Ntp4168
Rp4169
(dp4170
g18
F0.5
sg19
I63
sg20
g21
((dp4171
I00
I62
sI01
I1
stp4172
Rp4173
sg25
I2
sg26
F64.0
sbs(g9
S'terrible'
p4174
tp4175
g0
(g14
g2
Ntp4176
Rp4177
(dp4178
g18
F0.5
sg19
I198
sg20
g21
((dp4179
I00
I198
stp4180
Rp4181
sg25
I2
sg26
F199.0
sbs(g9
S'rich'
p4182
tp4183
g0
(g14
g2
Ntp4184
Rp4185
(dp4186
g18
F0.5
sg19
I198
sg20
g21
((dp4187
I00
I197
sI01
I1
stp4188
Rp4189
sg25
I2
sg26
F199.0
sbs(g8
g865
tp4190
g0
(g14
g2
Ntp4191
Rp4192
(dp4193
g18
F0.5
sg19
I63
sg20
g21
((dp4194
I00
I63
stp4195
Rp4196
sg25
I2
sg26
F64.0
sbs(g8
g1280
tp4197
g0
(g14
g2
Ntp4198
Rp4199
(dp4200
g18
F0.5
sg19
I63
sg20
g21
((dp4201
I00
I62
sI01
I1
stp4202
Rp4203
sg25
I2
sg26
F64.0
sbs(g9
g3557
tp4204
g0
(g14
g2
Ntp4205
Rp4206
(dp4207
g18
F0.5
sg19
I198
sg20
g21
((dp4208
I00
I195
sI01
I3
stp4209
Rp4210
sg25
I2
sg26
F199.0
sbs(g8
g3013
tp4211
g0
(g14
g2
Ntp4212
Rp4213
(dp4214
g18
F0.5
sg19
I63
sg20
g21
((dp4215
I00
I56
sI01
I7
stp4216
Rp4217
sg25
I2
sg26
F64.0
sbs(g9
g2843
tp4218
g0
(g14
g2
Ntp4219
Rp4220
(dp4221
g18
F0.5
sg19
I198
sg20
g21
((dp4222
I00
I197
sI01
I1
stp4223
Rp4224
sg25
I2
sg26
F199.0
sbs(g8
g115
tp4225
g0
(g14
g2
Ntp4226
Rp4227
(dp4228
g18
F0.5
sg19
I63
sg20
g21
((dp4229
I00
I61
sI01
I2
stp4230
Rp4231
sg25
I2
sg26
F64.0
sbs(g9
S'utm_source=nl-sad'
p4232
tp4233
g0
(g14
g2
Ntp4234
Rp4235
(dp4236
g18
F0.5
sg19
I198
sg20
g21
((dp4237
I00
I198
stp4238
Rp4239
sg25
I1
sg26
F198.5
sbs(g8
g785
tp4240
g0
(g14
g2
Ntp4241
Rp4242
(dp4243
g18
F0.5
sg19
I63
sg20
g21
((dp4244
I00
I62
sI01
I1
stp4245
Rp4246
sg25
I2
sg26
F64.0
sbs(g9
g705
tp4247
g0
(g14
g2
Ntp4248
Rp4249
(dp4250
g18
F0.5
sg19
I198
sg20
g21
((dp4251
I00
I197
sI01
I1
stp4252
Rp4253
sg25
I2
sg26
F199.0
sbs(g8
g479
tp4254
g0
(g14
g2
Ntp4255
Rp4256
(dp4257
g18
F0.5
sg19
I63
sg20
g21
((dp4258
I00
I63
stp4259
Rp4260
sg25
I2
sg26
F64.0
sbs(g9
S'efx'
p4261
tp4262
g0
(g14
g2
Ntp4263
Rp4264
(dp4265
g18
F0.5
sg19
I198
sg20
g21
((dp4266
I00
I197
sI01
I1
stp4267
Rp4268
sg25
I2
sg26
F199.0
sbs(g8
g3991
tp4269
g0
(g14
g2
Ntp4270
Rp4271
(dp4272
g18
F0.5
sg19
I63
sg20
g21
((dp4273
I00
I58
sI01
I5
stp4274
Rp4275
sg25
I2
sg26
F64.0
sbs(g8
S'sell'
p4276
tp4277
g0
(g14
g2
Ntp4278
Rp4279
(dp4280
g18
F0.5
sg19
I63
sg20
g21
((dp4281
I00
I63
stp4282
Rp4283
sg25
I2
sg26
F64.0
sbs(g9
g1857
tp4284
g0
(g14
g2
Ntp4285
Rp4286
(dp4287
g18
F0.5
sg19
I198
sg20
g21
((dp4288
I00
I197
sI01
I1
stp4289
Rp4290
sg25
I2
sg26
F199.0
sbs(g8
g219
tp4291
g0
(g14
g2
Ntp4292
Rp4293
(dp4294
g18
F0.5
sg19
I63
sg20
g21
((dp4295
I00
I63
stp4296
Rp4297
sg25
I2
sg26
F64.0
sbs(g9
g1248
tp4298
g0
(g14
g2
Ntp4299
Rp4300
(dp4301
g18
F0.5
sg19
I198
sg20
g21
((dp4302
I00
I195
sI01
I3
stp4303
Rp4304
sg25
I2
sg26
F199.0
sbs(g8
g3080
tp4305
g0
(g14
g2
Ntp4306
Rp4307
(dp4308
g18
F0.5
sg19
I63
sg20
g21
((dp4309
I00
I61
sI01
I2
stp4310
Rp4311
sg25
I2
sg26
F64.0
sbs(g9
S'forward'
p4312
tp4313
g0
(g14
g2
Ntp4314
Rp4315
(dp4316
g18
F0.5
sg19
I198
sg20
g21
((dp4317
I00
I197
sI01
I1
stp4318
Rp4319
sg25
I2
sg26
F199.0
sbs(g8
S'nxt'
p4320
tp4321
g0
(g14
g2
Ntp4322
Rp4323
(dp4324
g18
F0.5
sg19
I63
sg20
g21
((dp4325
I00
I63
stp4326
Rp4327
sg25
I2
sg26
F64.0
sbs(g8
g2681
tp4328
g0
(g14
g2
Ntp4329
Rp4330
(dp4331
g18
F0.5
sg19
I63
sg20
g21
((dp4332
I00
I62
sI01
I1
stp4333
Rp4334
sg25
I2
sg26
F64.0
sbs(g9
S'profit'
p4335
tp4336
g0
(g14
g2
Ntp4337
Rp4338
(dp4339
g18
F0.5
sg19
I198
sg20
g21
((dp4340
I00
I198
stp4341
Rp4342
sg25
I1
sg26
F198.5
sbs(g9
g1008
tp4343
g0
(g14
g2
Ntp4344
Rp4345
(dp4346
g18
F0.5
sg19
I198
sg20
g21
((dp4347
I00
I197
sI01
I1
stp4348
Rp4349
sg25
I2
sg26
F199.0
sbs(g8
g131
tp4350
g0
(g14
g2
Ntp4351
Rp4352
(dp4353
g18
F0.5
sg19
I63
sg20
g21
((dp4354
I00
I63
stp4355
Rp4356
sg25
I1
sg26
F63.5
sbs(g9
g1000
tp4357
g0
(g14
g2
Ntp4358
Rp4359
(dp4360
g18
F0.5
sg19
I198
sg20
g21
((dp4361
I00
I198
stp4362
Rp4363
sg25
I2
sg26
F199.0
sbs(g8
S'does'
p4364
tp4365
g0
(g14
g2
Ntp4366
Rp4367
(dp4368
g18
F0.5
sg19
I63
sg20
g21
((dp4369
I00
I61
sI01
I2
stp4370
Rp4371
sg25
I2
sg26
F64.0
sbs(g8
g2231
tp4372
g0
(g14
g2
Ntp4373
Rp4374
(dp4375
g18
F0.5
sg19
I63
sg20
g21
((dp4376
I00
I63
stp4377
Rp4378
sg25
I2
sg26
F64.0
sbs(g9
g3220
tp4379
g0
(g14
g2
Ntp4380
Rp4381
(dp4382
g18
F0.5
sg19
I198
sg20
g21
((dp4383
I00
I197
sI01
I1
stp4384
Rp4385
sg25
I2
sg26
F199.0
sbs(g9
S'call'
p4386
tp4387
g0
(g14
g2
Ntp4388
Rp4389
(dp4390
g18
F0.5
sg19
I198
sg20
g21
((dp4391
I00
I198
stp4392
Rp4393
sg25
I1
sg26
F198.5
sbs(g9
S'lovely'
p4394
tp4395
g0
(g14
g2
Ntp4396
Rp4397
(dp4398
g18
F0.5
sg19
I198
sg20
g21
((dp4399
I00
I197
sI01
I1
stp4400
Rp4401
sg25
I2
sg26
F199.0
sbs(g8
g2743
tp4402
g0
(g14
g2
Ntp4403
Rp4404
(dp4405
g18
F0.5
sg19
I63
sg20
g21
((dp4406
I00
I63
stp4407
Rp4408
sg25
I2
sg26
F64.0
sbs(g8
S'mid'
p4409
tp4410
g0
(g14
g2
Ntp4411
Rp4412
(dp4413
g18
F0.5
sg19
I63
sg20
g21
((dp4414
I00
I63
stp4415
Rp4416
sg25
I2
sg26
F64.0
sbs(g9
g1724
tp4417
g0
(g14
g2
Ntp4418
Rp4419
(dp4420
g18
F0.5
sg19
I198
sg20
g21
((dp4421
I00
I196
sI01
I2
stp4422
Rp4423
sg25
I2
sg26
F199.0
sbs(g9
S'green'
p4424
tp4425
g0
(g14
g2
Ntp4426
Rp4427
(dp4428
g18
F0.5
sg19
I198
sg20
g21
((dp4429
I00
I196
sI01
I2
stp4430
Rp4431
sg25
I2
sg26
F199.0
sbs(g8
g4312
tp4432
g0
(g14
g2
Ntp4433
Rp4434
(dp4435
g18
F0.5
sg19
I63
sg20
g21
((dp4436
I00
I63
stp4437
Rp4438
sg25
I2
sg26
F64.0
sbs(g8
S'natural'
p4439
tp4440
g0
(g14
g2
Ntp4441
Rp4442
(dp4443
g18
F0.5
sg19
I63
sg20
g21
((dp4444
I00
I62
sI01
I1
stp4445
Rp4446
sg25
I2
sg26
F64.0
sbs(g9
g1607
tp4447
g0
(g14
g2
Ntp4448
Rp4449
(dp4450
g18
F0.5
sg19
I198
sg20
g21
((dp4451
I00
I196
sI01
I2
stp4452
Rp4453
sg25
I2
sg26
F199.0
sbs(g8
g2170
tp4454
g0
(g14
g2
Ntp4455
Rp4456
(dp4457
g18
F0.5
sg19
I63
sg20
g21
((dp4458
I00
I61
sI01
I2
stp4459
Rp4460
sg25
I2
sg26
F64.0
sbs(g9
S'little'
p4461
tp4462
g0
(g14
g2
Ntp4463
Rp4464
(dp4465
g18
F0.5
sg19
I198
sg20
g21
((dp4466
I00
I196
sI01
I2
stp4467
Rp4468
sg25
I2
sg26
F199.0
sbs(g8
g2185
tp4469
g0
(g14
g2
Ntp4470
Rp4471
(dp4472
g18
F0.5
sg19
I63
sg20
g21
((dp4473
I00
I63
stp4474
Rp4475
sg25
I2
sg26
F64.0
sbs(g8
g1032
tp4476
g0
(g14
g2
Ntp4477
Rp4478
(dp4479
g18
F0.5
sg19
I63
sg20
g21
((dp4480
I00
I63
stp4481
Rp4482
sg25
I2
sg26
F64.0
sbs(g8
S'close'
p4483
tp4484
g0
(g14
g2
Ntp4485
Rp4486
(dp4487
g18
F0.5
sg19
I63
sg20
g21
((dp4488
I00
I63
stp4489
Rp4490
sg25
I2
sg26
F64.0
sbs(g9
g3633
tp4491
g0
(g14
g2
Ntp4492
Rp4493
(dp4494
g18
F0.5
sg19
I198
sg20
g21
((dp4495
I00
I197
sI01
I1
stp4496
Rp4497
sg25
I2
sg26
F199.0
sbs(g8
g1520
tp4498
g0
(g14
g2
Ntp4499
Rp4500
(dp4501
g18
F0.5
sg19
I63
sg20
g21
((dp4502
I00
I61
sI01
I2
stp4503
Rp4504
sg25
I2
sg26
F64.0
sbs(g8
S'have'
p4505
tp4506
g0
(g14
g2
Ntp4507
Rp4508
(dp4509
g18
F0.5
sg19
I63
sg20
g21
((dp4510
I00
I58
sI01
I5
stp4511
Rp4512
sg25
I2
sg26
F64.0
sbs(g9
S'//ow.ly/jkoa30f6rj4'
p4513
tp4514
g0
(g14
g2
Ntp4515
Rp4516
(dp4517
g18
F0.5
sg19
I198
sg20
g21
((dp4518
I00
I198
stp4519
Rp4520
sg25
I1
sg26
F198.5
sbs(g8
g944
tp4521
g0
(g14
g2
Ntp4522
Rp4523
(dp4524
g18
F0.5
sg19
I63
sg20
g21
((dp4525
I00
I63
stp4526
Rp4527
sg25
I2
sg26
F64.0
sbs(g8
S'kick'
p4528
tp4529
g0
(g14
g2
Ntp4530
Rp4531
(dp4532
g18
F0.5
sg19
I63
sg20
g21
((dp4533
I00
I63
stp4534
Rp4535
sg25
I2
sg26
F64.0
sbs(g8
g2293
tp4536
g0
(g14
g2
Ntp4537
Rp4538
(dp4539
g18
F0.5
sg19
I63
sg20
g21
((dp4540
I00
I63
stp4541
Rp4542
sg25
I2
sg26
F64.0
sbs(g9
S'monetize'
p4543
tp4544
g0
(g14
g2
Ntp4545
Rp4546
(dp4547
g18
F0.5
sg19
I198
sg20
g21
((dp4548
I00
I196
sI01
I2
stp4549
Rp4550
sg25
I2
sg26
F199.0
sbs(g9
g4483
tp4551
g0
(g14
g2
Ntp4552
Rp4553
(dp4554
g18
F0.5
sg19
I198
sg20
g21
((dp4555
I00
I189
sI01
I9
stp4556
Rp4557
sg25
I2
sg26
F199.0
sbs(g9
g2604
tp4558
g0
(g14
g2
Ntp4559
Rp4560
(dp4561
g18
F0.5
sg19
I198
sg20
g21
((dp4562
I00
I197
sI01
I1
stp4563
Rp4564
sg25
I2
sg26
F199.0
sbs(g9
S'poor'
p4565
tp4566
g0
(g14
g2
Ntp4567
Rp4568
(dp4569
g18
F0.5
sg19
I198
sg20
g21
((dp4570
I00
I198
stp4571
Rp4572
sg25
I2
sg26
F199.0
sbs(g9
g849
tp4573
g0
(g14
g2
Ntp4574
Rp4575
(dp4576
g18
F0.5
sg19
I198
sg20
g21
((dp4577
I00
I198
stp4578
Rp4579
sg25
I1
sg26
F198.5
sbs(g9
g4138
tp4580
g0
(g14
g2
Ntp4581
Rp4582
(dp4583
g18
F0.5
sg19
I198
sg20
g21
((dp4584
I00
I197
sI01
I1
stp4585
Rp4586
sg25
I2
sg26
F199.0
sbs(g8
g1078
tp4587
g0
(g14
g2
Ntp4588
Rp4589
(dp4590
g18
F0.5
sg19
I63
sg20
g21
((dp4591
I00
I61
sI01
I2
stp4592
Rp4593
sg25
I2
sg26
F64.0
sbs(g8
S'amazing'
p4594
tp4595
g0
(g14
g2
Ntp4596
Rp4597
(dp4598
g18
F0.5
sg19
I63
sg20
g21
((dp4599
I00
I63
stp4600
Rp4601
sg25
I2
sg26
F64.0
sbs(g8
g2959
tp4602
g0
(g14
g2
Ntp4603
Rp4604
(dp4605
g18
F0.5
sg19
I63
sg20
g21
((dp4606
I00
I61
sI01
I2
stp4607
Rp4608
sg25
I2
sg26
F64.0
sbs(g9
g1358
tp4609
g0
(g14
g2
Ntp4610
Rp4611
(dp4612
g18
F0.5
sg19
I198
sg20
g21
((dp4613
I00
I196
sI01
I2
stp4614
Rp4615
sg25
I2
sg26
F199.0
sbs(g8
g1920
tp4616
g0
(g14
g2
Ntp4617
Rp4618
(dp4619
g18
F0.5
sg19
I63
sg20
g21
((dp4620
I00
I60
sI01
I3
stp4621
Rp4622
sg25
I2
sg26
F64.0
sbs(g8
S'higher'
p4623
tp4624
g0
(g14
g2
Ntp4625
Rp4626
(dp4627
g18
F0.5
sg19
I63
sg20
g21
((dp4628
I00
I63
stp4629
Rp4630
sg25
I2
sg26
F64.0
sbs(g9
g3983
tp4631
g0
(g14
g2
Ntp4632
Rp4633
(dp4634
g18
F0.5
sg19
I198
sg20
g21
((dp4635
I00
I190
sI01
I8
stp4636
Rp4637
sg25
I2
sg26
F199.0
sbs(g8
S'blue'
p4638
tp4639
g0
(g14
g2
Ntp4640
Rp4641
(dp4642
g18
F0.5
sg19
I63
sg20
g21
((dp4643
I00
I63
stp4644
Rp4645
sg25
I2
sg26
F64.0
sbs(g9
S'jpmorgan'
p4646
tp4647
g0
(g14
g2
Ntp4648
Rp4649
(dp4650
g18
F0.5
sg19
I198
sg20
g21
((dp4651
I00
I198
stp4652
Rp4653
sg25
I1
sg26
F198.5
sbs(g8
g4182
tp4654
g0
(g14
g2
Ntp4655
Rp4656
(dp4657
g18
F0.5
sg19
I63
sg20
g21
((dp4658
I00
I63
stp4659
Rp4660
sg25
I2
sg26
F64.0
sbs(g8
S't'
p4661
tp4662
g0
(g14
g2
Ntp4663
Rp4664
(dp4665
g18
F0.5
sg19
I63
sg20
g21
((dp4666
I00
I61
sI01
I2
stp4667
Rp4668
sg25
I2
sg26
F64.0
sbs(g9
S'//seekingalpha.com/article/4106383-kroger-starting-look-appetizing-12_9x-ttm-p-e'
p4669
tp4670
g0
(g14
g2
Ntp4671
Rp4672
(dp4673
g18
F0.5
sg19
I198
sg20
g21
((dp4674
I00
I197
sI01
I1
stp4675
Rp4676
sg25
I2
sg26
F199.0
sbs(g9
S'worst'
p4677
tp4678
g0
(g14
g2
Ntp4679
Rp4680
(dp4681
g18
F0.5
sg19
I198
sg20
g21
((dp4682
I00
I198
stp4683
Rp4684
sg25
I2
sg26
F199.0
sbs(g8
g4424
tp4685
g0
(g14
g2
Ntp4686
Rp4687
(dp4688
g18
F0.5
sg19
I63
sg20
g21
((dp4689
I00
I63
stp4690
Rp4691
sg25
I2
sg26
F64.0
sbs(g8
S'falling'
p4692
tp4693
g0
(g14
g2
Ntp4694
Rp4695
(dp4696
g18
F0.5
sg19
I63
sg20
g21
((dp4697
I00
I62
sI01
I1
stp4698
Rp4699
sg25
I2
sg26
F64.0
sbs(g8
g2409
tp4700
g0
(g14
g2
Ntp4701
Rp4702
(dp4703
g18
F0.5
sg19
I63
sg20
g21
((dp4704
I00
I63
stp4705
Rp4706
sg25
I2
sg26
F64.0
sbs(g9
g4661
tp4707
g0
(g14
g2
Ntp4708
Rp4709
(dp4710
g18
F0.5
sg19
I198
sg20
g21
((dp4711
I00
I193
sI01
I5
stp4712
Rp4713
sg25
I2
sg26
F199.0
sbs(g8
g2007
tp4714
g0
(g14
g2
Ntp4715
Rp4716
(dp4717
g18
F0.5
sg19
I63
sg20
g21
((dp4718
I00
I63
stp4719
Rp4720
sg25
I2
sg26
F64.0
sbs(g8
g4669
tp4721
g0
(g14
g2
Ntp4722
Rp4723
(dp4724
g18
F0.5
sg19
I63
sg20
g21
((dp4725
I00
I63
stp4726
Rp4727
sg25
I2
sg26
F64.0
sbs(g9
g2285
tp4728
g0
(g14
g2
Ntp4729
Rp4730
(dp4731
g18
F0.5
sg19
I198
sg20
g21
((dp4732
I00
I197
sI01
I1
stp4733
Rp4734
sg25
I2
sg26
F199.0
sbs(g8
g682
tp4735
g0
(g14
g2
Ntp4736
Rp4737
(dp4738
g18
F0.5
sg19
I63
sg20
g21
((dp4739
I00
I62
sI01
I1
stp4740
Rp4741
sg25
I2
sg26
F64.0
sbs(g8
g3580
tp4742
g0
(g14
g2
Ntp4743
Rp4744
(dp4745
g18
F0.5
sg19
I63
sg20
g21
((dp4746
I00
I59
sI01
I4
stp4747
Rp4748
sg25
I2
sg26
F64.0
sbs(g8
g1787
tp4749
g0
(g14
g2
Ntp4750
Rp4751
(dp4752
g18
F0.5
sg19
I63
sg20
g21
((dp4753
I00
I61
sI01
I2
stp4754
Rp4755
sg25
I2
sg26
F64.0
sbs(g9
g1450
tp4756
g0
(g14
g2
Ntp4757
Rp4758
(dp4759
g18
F0.5
sg19
I198
sg20
g21
((dp4760
I00
I197
sI01
I1
stp4761
Rp4762
sg25
I2
sg26
F199.0
sbs(g9
g2332
tp4763
g0
(g14
g2
Ntp4764
Rp4765
(dp4766
g18
F0.5
sg19
I198
sg20
g21
((dp4767
I00
I197
sI01
I1
stp4768
Rp4769
sg25
I2
sg26
F199.0
sbs(g8
g729
tp4770
g0
(g14
g2
Ntp4771
Rp4772
(dp4773
g18
F0.5
sg19
I63
sg20
g21
((dp4774
I00
I63
stp4775
Rp4776
sg25
I2
sg26
F64.0
sbs(g8
g1102
tp4777
g0
(g14
g2
Ntp4778
Rp4779
(dp4780
g18
F0.5
sg19
I63
sg20
g21
((dp4781
I00
I63
stp4782
Rp4783
sg25
I2
sg26
F64.0
sbs(g8
S'squash'
p4784
tp4785
g0
(g14
g2
Ntp4786
Rp4787
(dp4788
g18
F0.5
sg19
I63
sg20
g21
((dp4789
I00
I63
stp4790
Rp4791
sg25
I1
sg26
F63.5
sbs(g9
S'tsla'
p4792
tp4793
g0
(g14
g2
Ntp4794
Rp4795
(dp4796
g18
F0.5
sg19
I198
sg20
g21
((dp4797
I00
I197
sI01
I1
stp4798
Rp4799
sg25
I2
sg26
F199.0
sbs(g9
S'move'
p4800
tp4801
g0
(g14
g2
Ntp4802
Rp4803
(dp4804
g18
F0.5
sg19
I198
sg20
g21
((dp4805
I00
I193
sI01
I5
stp4806
Rp4807
sg25
I2
sg26
F199.0
sbs(g9
g1224
tp4808
g0
(g14
g2
Ntp4809
Rp4810
(dp4811
g18
F0.5
sg19
I198
sg20
g21
((dp4812
I00
I197
sI01
I1
stp4813
Rp4814
sg25
I2
sg26
F199.0
sbs(g9
S't='
p4815
tp4816
g0
(g14
g2
Ntp4817
Rp4818
(dp4819
g18
F0.5
sg19
I198
sg20
g21
((dp4820
I00
I189
sI01
I9
stp4821
Rp4822
sg25
I2
sg26
F199.0
sbs(g8
g1647
tp4823
g0
(g14
g2
Ntp4824
Rp4825
(dp4826
g18
F0.5
sg19
I63
sg20
g21
((dp4827
I00
I63
stp4828
Rp4829
sg25
I1
sg26
F63.5
sbs(g8
g1366
tp4830
g0
(g14
g2
Ntp4831
Rp4832
(dp4833
g18
F0.5
sg19
I63
sg20
g21
((dp4834
I00
I58
sI01
I5
stp4835
Rp4836
sg25
I2
sg26
F64.0
sbs(g8
g1889
tp4837
g0
(g14
g2
Ntp4838
Rp4839
(dp4840
g18
F0.5
sg19
I63
sg20
g21
((dp4841
I00
I63
stp4842
Rp4843
sg25
I2
sg26
F64.0
sbs(g8
g3512
tp4844
g0
(g14
g2
Ntp4845
Rp4846
(dp4847
g18
F0.5
sg19
I63
sg20
g21
((dp4848
I00
I63
stp4849
Rp4850
sg25
I2
sg26
F64.0
sbs(g8
g1350
tp4851
g0
(g14
g2
Ntp4852
Rp4853
(dp4854
g18
F0.5
sg19
I63
sg20
g21
((dp4855
I00
I63
stp4856
Rp4857
sg25
I2
sg26
F64.0
sbs(g8
S'tune'
p4858
tp4859
g0
(g14
g2
Ntp4860
Rp4861
(dp4862
g18
F0.5
sg19
I63
sg20
g21
((dp4863
I00
I62
sI01
I1
stp4864
Rp4865
sg25
I2
sg26
F64.0
sbs(g8
g4386
tp4866
g0
(g14
g2
Ntp4867
Rp4868
(dp4869
g18
F0.5
sg19
I63
sg20
g21
((dp4870
I00
I63
stp4871
Rp4872
sg25
I1
sg26
F63.5
sbs(g8
g2484
tp4873
g0
(g14
g2
Ntp4874
Rp4875
(dp4876
g18
F0.5
sg19
I63
sg20
g21
((dp4877
I00
I63
stp4878
Rp4879
sg25
I2
sg26
F64.0
sbs(g9
S'civilian'
p4880
tp4881
g0
(g14
g2
Ntp4882
Rp4883
(dp4884
g18
F0.5
sg19
I198
sg20
g21
((dp4885
I00
I197
sI01
I1
stp4886
Rp4887
sg25
I2
sg26
F199.0
sbs(g9
g3288
tp4888
g0
(g14
g2
Ntp4889
Rp4890
(dp4891
g18
F0.5
sg19
I198
sg20
g21
((dp4892
I00
I197
sI01
I1
stp4893
Rp4894
sg25
I2
sg26
F199.0
sbs(g8
S'taking'
p4895
tp4896
g0
(g14
g2
Ntp4897
Rp4898
(dp4899
g18
F0.5
sg19
I63
sg20
g21
((dp4900
I00
I61
sI01
I2
stp4901
Rp4902
sg25
I2
sg26
F64.0
sbs(g8
g3708
tp4903
g0
(g14
g2
Ntp4904
Rp4905
(dp4906
g18
F0.5
sg19
I63
sg20
g21
((dp4907
I00
I63
stp4908
Rp4909
sg25
I2
sg26
F64.0
sbs(g9
S'breaks'
p4910
tp4911
g0
(g14
g2
Ntp4912
Rp4913
(dp4914
g18
F0.5
sg19
I198
sg20
g21
((dp4915
I00
I198
stp4916
Rp4917
sg25
I2
sg26
F199.0
sbs(g8
g3409
tp4918
g0
(g14
g2
Ntp4919
Rp4920
(dp4921
g18
F0.5
sg19
I63
sg20
g21
((dp4922
I00
I63
stp4923
Rp4924
sg25
I2
sg26
F64.0
sbs(g8
S'merge'
p4925
tp4926
g0
(g14
g2
Ntp4927
Rp4928
(dp4929
g18
F0.5
sg19
I63
sg20
g21
((dp4930
I00
I62
sI01
I1
stp4931
Rp4932
sg25
I2
sg26
F64.0
sbs(g9
S'chemo'
p4933
tp4934
g0
(g14
g2
Ntp4935
Rp4936
(dp4937
g18
F0.5
sg19
I198
sg20
g21
((dp4938
I00
I197
sI01
I1
stp4939
Rp4940
sg25
I2
sg26
F199.0
sbs(g8
S'mstowe6'
p4941
tp4942
g0
(g14
g2
Ntp4943
Rp4944
(dp4945
g18
F0.5
sg19
I63
sg20
g21
((dp4946
I00
I63
stp4947
Rp4948
sg25
I2
sg26
F64.0
sbs(g8
g674
tp4949
g0
(g14
g2
Ntp4950
Rp4951
(dp4952
g18
F0.5
sg19
I63
sg20
g21
((dp4953
I00
I63
stp4954
Rp4955
sg25
I2
sg26
F64.0
sbs(g9
g471
tp4956
g0
(g14
g2
Ntp4957
Rp4958
(dp4959
g18
F0.5
sg19
I198
sg20
g21
((dp4960
I00
I198
stp4961
Rp4962
sg25
I1
sg26
F198.5
sbs(g8
g952
tp4963
g0
(g14
g2
Ntp4964
Rp4965
(dp4966
g18
F0.5
sg19
I63
sg20
g21
((dp4967
I00
I63
stp4968
Rp4969
sg25
I2
sg26
F64.0
sbs(g9
g793
tp4970
g0
(g14
g2
Ntp4971
Rp4972
(dp4973
g18
F0.5
sg19
I198
sg20
g21
((dp4974
I00
I197
sI01
I1
stp4975
Rp4976
sg25
I2
sg26
F199.0
sbs(g9
g2758
tp4977
g0
(g14
g2
Ntp4978
Rp4979
(dp4980
g18
F0.5
sg19
I198
sg20
g21
((dp4981
I00
I198
stp4982
Rp4983
sg25
I1
sg26
F198.5
sbs(g9
g4941
tp4984
g0
(g14
g2
Ntp4985
Rp4986
(dp4987
g18
F0.5
sg19
I198
sg20
g21
((dp4988
I00
I197
sI01
I1
stp4989
Rp4990
sg25
I2
sg26
F199.0
sbs(g9
g2581
tp4991
g0
(g14
g2
Ntp4992
Rp4993
(dp4994
g18
F0.5
sg19
I198
sg20
g21
((dp4995
I00
I196
sI01
I2
stp4996
Rp4997
sg25
I2
sg26
F199.0
sbs(g9
g897
tp4998
g0
(g14
g2
Ntp4999
Rp5000
(dp5001
g18
F0.5
sg19
I198
sg20
g21
((dp5002
I00
I195
sI01
I3
stp5003
Rp5004
sg25
I2
sg26
F199.0
sbs(g9
g2712
tp5005
g0
(g14
g2
Ntp5006
Rp5007
(dp5008
g18
F0.5
sg19
I198
sg20
g21
((dp5009
I00
I198
stp5010
Rp5011
sg25
I2
sg26
F199.0
sbs(g8
g2086
tp5012
g0
(g14
g2
Ntp5013
Rp5014
(dp5015
g18
F0.5
sg19
I63
sg20
g21
((dp5016
I00
I63
stp5017
Rp5018
sg25
I2
sg26
F64.0
sbs(g8
g75
tp5019
g0
(g14
g2
Ntp5020
Rp5021
(dp5022
g18
F0.5
sg19
I63
sg20
g21
((dp5023
I00
I62
sI01
I1
stp5024
Rp5025
sg25
I2
sg26
F64.0
sbs(g8
g2125
tp5026
g0
(g14
g2
Ntp5027
Rp5028
(dp5029
g18
F0.5
sg19
I63
sg20
g21
((dp5030
I00
I62
sI01
I1
stp5031
Rp5032
sg25
I2
sg26
F64.0
sbs(g9
g1686
tp5033
g0
(g14
g2
Ntp5034
Rp5035
(dp5036
g18
F0.5
sg19
I198
sg20
g21
((dp5037
I00
I193
sI01
I5
stp5038
Rp5039
sg25
I2
sg26
F199.0
sbs(g9
g2899
tp5040
g0
(g14
g2
Ntp5041
Rp5042
(dp5043
g18
F0.5
sg19
I198
sg20
g21
((dp5044
I00
I198
stp5045
Rp5046
sg25
I2
sg26
F199.0
sbs(g8
g3762
tp5047
g0
(g14
g2
Ntp5048
Rp5049
(dp5050
g18
F0.5
sg19
I63
sg20
g21
((dp5051
I00
I61
sI01
I2
stp5052
Rp5053
sg25
I2
sg26
F64.0
sbs(g8
g4815
tp5054
g0
(g14
g2
Ntp5055
Rp5056
(dp5057
g18
F0.5
sg19
I63
sg20
g21
((dp5058
I00
I63
stp5059
Rp5060
sg25
I2
sg26
F64.0
sbs(g8
S'spiked'
p5061
tp5062
g0
(g14
g2
Ntp5063
Rp5064
(dp5065
g18
F0.5
sg19
I63
sg20
g21
((dp5066
I00
I63
stp5067
Rp5068
sg25
I2
sg26
F64.0
sbs(g9
g1552
tp5069
g0
(g14
g2
Ntp5070
Rp5071
(dp5072
g18
F0.5
sg19
I198
sg20
g21
((dp5073
I00
I197
sI01
I1
stp5074
Rp5075
sg25
I2
sg26
F199.0
sbs(g8
g211
tp5076
g0
(g14
g2
Ntp5077
Rp5078
(dp5079
g18
F0.5
sg19
I63
sg20
g21
((dp5080
I00
I63
stp5081
Rp5082
sg25
I1
sg26
F63.5
sbs(g8
g1094
tp5083
g0
(g14
g2
Ntp5084
Rp5085
(dp5086
g18
F0.5
sg19
I63
sg20
g21
((dp5087
I00
I63
stp5088
Rp5089
sg25
I2
sg26
F64.0
sbs(g8
g2015
tp5090
g0
(g14
g2
Ntp5091
Rp5092
(dp5093
g18
F0.5
sg19
I63
sg20
g21
((dp5094
I00
I60
sI01
I3
stp5095
Rp5096
sg25
I2
sg26
F64.0
sbs(g9
g2425
tp5097
g0
(g14
g2
Ntp5098
Rp5099
(dp5100
g18
F0.5
sg19
I198
sg20
g21
((dp5101
I00
I196
sI01
I2
stp5102
Rp5103
sg25
I2
sg26
F199.0
sbs(g8
g2062
tp5104
g0
(g14
g2
Ntp5105
Rp5106
(dp5107
g18
F0.5
sg19
I63
sg20
g21
((dp5108
I00
I61
sI01
I2
stp5109
Rp5110
sg25
I2
sg26
F64.0
sbs(g9
g3504
tp5111
g0
(g14
g2
Ntp5112
Rp5113
(dp5114
g18
F0.5
sg19
I198
sg20
g21
((dp5115
I00
I198
stp5116
Rp5117
sg25
I2
sg26
F199.0
sbs(g9
S'epix'
p5118
tp5119
g0
(g14
g2
Ntp5120
Rp5121
(dp5122
g18
F0.5
sg19
I198
sg20
g21
((dp5123
I00
I197
sI01
I1
stp5124
Rp5125
sg25
I2
sg26
F199.0
sbs(g8
S'bullet'
p5126
tp5127
g0
(g14
g2
Ntp5128
Rp5129
(dp5130
g18
F0.5
sg19
I63
sg20
g21
((dp5131
I00
I61
sI01
I2
stp5132
Rp5133
sg25
I2
sg26
F64.0
sbs(g9
g1016
tp5134
g0
(g14
g2
Ntp5135
Rp5136
(dp5137
g18
F0.5
sg19
I198
sg20
g21
((dp5138
I00
I198
stp5139
Rp5140
sg25
I1
sg26
F198.5
sbs(g9
g290
tp5141
g0
(g14
g2
Ntp5142
Rp5143
(dp5144
g18
F0.5
sg19
I198
sg20
g21
((dp5145
I00
I196
sI01
I2
stp5146
Rp5147
sg25
I2
sg26
F199.0
sbs(g9
S'want'
p5148
tp5149
g0
(g14
g2
Ntp5150
Rp5151
(dp5152
g18
F0.5
sg19
I198
sg20
g21
((dp5153
I00
I197
sI01
I1
stp5154
Rp5155
sg25
I2
sg26
F199.0
sbs(g9
S'political'
p5156
tp5157
g0
(g14
g2
Ntp5158
Rp5159
(dp5160
g18
F0.5
sg19
I198
sg20
g21
((dp5161
I00
I198
stp5162
Rp5163
sg25
I2
sg26
F199.0
sbs(g9
S'ala'
p5164
tp5165
g0
(g14
g2
Ntp5166
Rp5167
(dp5168
g18
F0.5
sg19
I198
sg20
g21
((dp5169
I00
I198
stp5170
Rp5171
sg25
I2
sg26
F199.0
sbs(g8
S'swap'
p5172
tp5173
g0
(g14
g2
Ntp5174
Rp5175
(dp5176
g18
F0.5
sg19
I63
sg20
g21
((dp5177
I00
I63
stp5178
Rp5179
sg25
I2
sg26
F64.0
sbs(g8
g4565
tp5180
g0
(g14
g2
Ntp5181
Rp5182
(dp5183
g18
F0.5
sg19
I63
sg20
g21
((dp5184
I00
I61
sI01
I2
stp5185
Rp5186
sg25
I2
sg26
F64.0
sbs(g8
g3595
tp5187
g0
(g14
g2
Ntp5188
Rp5189
(dp5190
g18
F0.5
sg19
I63
sg20
g21
((dp5191
I00
I63
stp5192
Rp5193
sg25
I1
sg26
F63.5
sbs(g8
g2951
tp5194
g0
(g14
g2
Ntp5195
Rp5196
(dp5197
g18
F0.5
sg19
I63
sg20
g21
((dp5198
I00
I63
stp5199
Rp5200
sg25
I1
sg26
F63.5
sbs(g8
g984
tp5201
g0
(g14
g2
Ntp5202
Rp5203
(dp5204
g18
F0.5
sg19
I63
sg20
g21
((dp5205
I00
I61
sI01
I2
stp5206
Rp5207
sg25
I2
sg26
F64.0
sbs(g8
S'probably'
p5208
tp5209
g0
(g14
g2
Ntp5210
Rp5211
(dp5212
g18
F0.5
sg19
I63
sg20
g21
((dp5213
I00
I62
sI01
I1
stp5214
Rp5215
sg25
I2
sg26
F64.0
sbs(g8
g2054
tp5216
g0
(g14
g2
Ntp5217
Rp5218
(dp5219
g18
F0.5
sg19
I63
sg20
g21
((dp5220
I00
I61
sI01
I2
stp5221
Rp5222
sg25
I2
sg26
F64.0
sbs(g8
g5164
tp5223
g0
(g14
g2
Ntp5224
Rp5225
(dp5226
g18
F0.5
sg19
I63
sg20
g21
((dp5227
I00
I62
sI01
I1
stp5228
Rp5229
sg25
I2
sg26
F64.0
sbs(g9
g4623
tp5230
g0
(g14
g2
Ntp5231
Rp5232
(dp5233
g18
F0.5
sg19
I198
sg20
g21
((dp5234
I00
I191
sI01
I7
stp5235
Rp5236
sg25
I2
sg26
F199.0
sbs(g8
g3968
tp5237
g0
(g14
g2
Ntp5238
Rp5239
(dp5240
g18
F0.5
sg19
I63
sg20
g21
((dp5241
I00
I63
stp5242
Rp5243
sg25
I2
sg26
F64.0
sbs(g8
S'retail'
p5244
tp5245
g0
(g14
g2
Ntp5246
Rp5247
(dp5248
g18
F0.5
sg19
I63
sg20
g21
((dp5249
I00
I63
stp5250
Rp5251
sg25
I2
sg26
F64.0
sbs(g9
g3319
tp5252
g0
(g14
g2
Ntp5253
Rp5254
(dp5255
g18
F0.5
sg19
I198
sg20
g21
((dp5256
I00
I198
stp5257
Rp5258
sg25
I2
sg26
F199.0
sbs(g8
g4109
tp5259
g0
(g14
g2
Ntp5260
Rp5261
(dp5262
g18
F0.5
sg19
I63
sg20
g21
((dp5263
I00
I63
stp5264
Rp5265
sg25
I2
sg26
F64.0
sbs(g9
g4528
tp5266
g0
(g14
g2
Ntp5267
Rp5268
(dp5269
g18
F0.5
sg19
I198
sg20
g21
((dp5270
I00
I197
sI01
I1
stp5271
Rp5272
sg25
I2
sg26
F199.0
sbs(g8
g2797
tp5273
g0
(g14
g2
Ntp5274
Rp5275
(dp5276
g18
F0.5
sg19
I63
sg20
g21
((dp5277
I00
I63
stp5278
Rp5279
sg25
I1
sg26
F63.5
sbs(g8
g3304
tp5280
g0
(g14
g2
Ntp5281
Rp5282
(dp5283
g18
F0.5
sg19
I63
sg20
g21
((dp5284
I00
I63
stp5285
Rp5286
sg25
I2
sg26
F64.0
sbs(g9
g2997
tp5287
g0
(g14
g2
Ntp5288
Rp5289
(dp5290
g18
F0.5
sg19
I198
sg20
g21
((dp5291
I00
I196
sI01
I2
stp5292
Rp5293
sg25
I2
sg26
F199.0
sbs(g8
g1881
tp5294
g0
(g14
g2
Ntp5295
Rp5296
(dp5297
g18
F0.5
sg19
I63
sg20
g21
((dp5298
I00
I62
sI01
I1
stp5299
Rp5300
sg25
I2
sg26
F64.0
sbs(g9
g4439
tp5301
g0
(g14
g2
Ntp5302
Rp5303
(dp5304
g18
F0.5
sg19
I198
sg20
g21
((dp5305
I00
I198
stp5306
Rp5307
sg25
I2
sg26
F199.0
sbs(g8
g1701
tp5308
g0
(g14
g2
Ntp5309
Rp5310
(dp5311
g18
F0.5
sg19
I63
sg20
g21
((dp5312
I00
I62
sI01
I1
stp5313
Rp5314
sg25
I2
sg26
F64.0
sbs(g9
g4013
tp5315
g0
(g14
g2
Ntp5316
Rp5317
(dp5318
g18
F0.5
sg19
I198
sg20
g21
((dp5319
I00
I198
stp5320
Rp5321
sg25
I2
sg26
F199.0
sbs(g9
g107
tp5322
g0
(g14
g2
Ntp5323
Rp5324
(dp5325
g18
F0.5
sg19
I198
sg20
g21
((dp5326
I00
I197
sI01
I1
stp5327
Rp5328
sg25
I2
sg26
F199.0
sbs(g9
g3431
tp5329
g0
(g14
g2
Ntp5330
Rp5331
(dp5332
g18
F0.5
sg19
I198
sg20
g21
((dp5333
I00
I197
sI01
I1
stp5334
Rp5335
sg25
I2
sg26
F199.0
sbs(g8
S'avoid'
p5336
tp5337
g0
(g14
g2
Ntp5338
Rp5339
(dp5340
g18
F0.5
sg19
I63
sg20
g21
((dp5341
I00
I62
sI01
I1
stp5342
Rp5343
sg25
I2
sg26
F64.0
sbs(g8
g1272
tp5344
g0
(g14
g2
Ntp5345
Rp5346
(dp5347
g18
F0.5
sg19
I63
sg20
g21
((dp5348
I00
I63
stp5349
Rp5350
sg25
I2
sg26
F64.0
sbs(g9
g1833
tp5351
g0
(g14
g2
Ntp5352
Rp5353
(dp5354
g18
F0.5
sg19
I198
sg20
g21
((dp5355
I00
I198
stp5356
Rp5357
sg25
I2
sg26
F199.0
sbs(g9
g1748
tp5358
g0
(g14
g2
Ntp5359
Rp5360
(dp5361
g18
F0.5
sg19
I198
sg20
g21
((dp5362
I00
I197
sI01
I1
stp5363
Rp5364
sg25
I2
sg26
F199.0
sbs(g8
g2851
tp5365
g0
(g14
g2
Ntp5366
Rp5367
(dp5368
g18
F0.5
sg19
I63
sg20
g21
((dp5369
I00
I63
stp5370
Rp5371
sg25
I2
sg26
F64.0
sbs(g8
g258
tp5372
g0
(g14
g2
Ntp5373
Rp5374
(dp5375
g18
F0.5
sg19
I63
sg20
g21
((dp5376
I00
I62
sI01
I1
stp5377
Rp5378
sg25
I2
sg26
F64.0
sbs(g8
S'grow'
p5379
tp5380
g0
(g14
g2
Ntp5381
Rp5382
(dp5383
g18
F0.5
sg19
I63
sg20
g21
((dp5384
I00
I63
stp5385
Rp5386
sg25
I2
sg26
F64.0
sbs(g8
g1663
tp5387
g0
(g14
g2
Ntp5388
Rp5389
(dp5390
g18
F0.5
sg19
I63
sg20
g21
((dp5391
I00
I63
stp5392
Rp5393
sg25
I2
sg26
F64.0
sbs(g8
g4513
tp5394
g0
(g14
g2
Ntp5395
Rp5396
(dp5397
g18
F0.5
sg19
I63
sg20
g21
((dp5398
I00
I63
stp5399
Rp5400
sg25
I1
sg26
F63.5
sbs(g8
g4677
tp5401
g0
(g14
g2
Ntp5402
Rp5403
(dp5404
g18
F0.5
sg19
I63
sg20
g21
((dp5405
I00
I62
sI01
I1
stp5406
Rp5407
sg25
I2
sg26
F64.0
sbs(g8
g526
tp5408
g0
(g14
g2
Ntp5409
Rp5410
(dp5411
g18
F0.5
sg19
I63
sg20
g21
((dp5412
I00
I63
stp5413
Rp5414
sg25
I2
sg26
F64.0
sbs(g8
S'uniquely'
p5415
tp5416
g0
(g14
g2
Ntp5417
Rp5418
(dp5419
g18
F0.5
sg19
I63
sg20
g21
((dp5420
I00
I63
stp5421
Rp5422
sg25
I2
sg26
F64.0
sbs(g8
S'pushing'
p5423
tp5424
g0
(g14
g2
Ntp5425
Rp5426
(dp5427
g18
F0.5
sg19
I63
sg20
g21
((dp5428
I00
I63
stp5429
Rp5430
sg25
I2
sg26
F64.0
sbs(g8
g2697
tp5431
g0
(g14
g2
Ntp5432
Rp5433
(dp5434
g18
F0.5
sg19
I63
sg20
g21
((dp5435
I00
I63
stp5436
Rp5437
sg25
I2
sg26
F64.0
sbs(g9
g4320
tp5438
g0
(g14
g2
Ntp5439
Rp5440
(dp5441
g18
F0.5
sg19
I198
sg20
g21
((dp5442
I00
I197
sI01
I1
stp5443
Rp5444
sg25
I2
sg26
F199.0
sbs(g9
S'hyped'
p5445
tp5446
g0
(g14
g2
Ntp5447
Rp5448
(dp5449
g18
F0.5
sg19
I198
sg20
g21
((dp5450
I00
I198
stp5451
Rp5452
sg25
I2
sg26
F199.0
sbs(g9
S'even'
p5453
tp5454
g0
(g14
g2
Ntp5455
Rp5456
(dp5457
g18
F0.5
sg19
I198
sg20
g21
((dp5458
I00
I198
stp5459
Rp5460
sg25
I2
sg26
F199.0
sbs(g8
g628
tp5461
g0
(g14
g2
Ntp5462
Rp5463
(dp5464
g18
F0.5
sg19
I63
sg20
g21
((dp5465
I00
I63
stp5466
Rp5467
sg25
I2
sg26
F64.0
sbs(g9
g3873
tp5468
g0
(g14
g2
Ntp5469
Rp5470
(dp5471
g18
F0.5
sg19
I198
sg20
g21
((dp5472
I00
I193
sI01
I5
stp5473
Rp5474
sg25
I2
sg26
F199.0
sbs(g8
S'important'
p5475
tp5476
g0
(g14
g2
Ntp5477
Rp5478
(dp5479
g18
F0.5
sg19
I63
sg20
g21
((dp5480
I00
I62
sI01
I1
stp5481
Rp5482
sg25
I2
sg26
F64.0
sbs(g8
g905
tp5483
g0
(g14
g2
Ntp5484
Rp5485
(dp5486
g18
F0.5
sg19
I63
sg20
g21
((dp5487
I00
I63
stp5488
Rp5489
sg25
I2
sg26
F64.0
sbs(g8
g4910
tp5490
g0
(g14
g2
Ntp5491
Rp5492
(dp5493
g18
F0.5
sg19
I63
sg20
g21
((dp5494
I00
I61
sI01
I2
stp5495
Rp5496
sg25
I2
sg26
F64.0
sbs(g8
g5445
tp5497
g0
(g14
g2
Ntp5498
Rp5499
(dp5500
g18
F0.5
sg19
I63
sg20
g21
((dp5501
I00
I62
sI01
I1
stp5502
Rp5503
sg25
I2
sg26
F64.0
sbs(g8
g4261
tp5504
g0
(g14
g2
Ntp5505
Rp5506
(dp5507
g18
F0.5
sg19
I63
sg20
g21
((dp5508
I00
I62
sI01
I1
stp5509
Rp5510
sg25
I2
sg26
F64.0
sbs(g9
g3058
tp5511
g0
(g14
g2
Ntp5512
Rp5513
(dp5514
g18
F0.5
sg19
I198
sg20
g21
((dp5515
I00
I198
stp5516
Rp5517
sg25
I1
sg26
F198.5
sbs(g9
g1591
tp5518
g0
(g14
g2
Ntp5519
Rp5520
(dp5521
g18
F0.5
sg19
I198
sg20
g21
((dp5522
I00
I197
sI01
I1
stp5523
Rp5524
sg25
I2
sg26
F199.0
sbs(g8
S'be'
p5525
tp5526
g0
(g14
g2
Ntp5527
Rp5528
(dp5529
g18
F0.5
sg19
I63
sg20
g21
((dp5530
I00
I56
sI01
I7
stp5531
Rp5532
sg25
I2
sg26
F64.0
sbs(g9
g3273
tp5533
g0
(g14
g2
Ntp5534
Rp5535
(dp5536
g18
F0.5
sg19
I198
sg20
g21
((dp5537
I00
I197
sI01
I1
stp5538
Rp5539
sg25
I2
sg26
F199.0
sbs(g9
g2046
tp5540
g0
(g14
g2
Ntp5541
Rp5542
(dp5543
g18
F0.5
sg19
I198
sg20
g21
((dp5544
I00
I197
sI01
I1
stp5545
Rp5546
sg25
I2
sg26
F199.0
sbs(g8
g2589
tp5547
g0
(g14
g2
Ntp5548
Rp5549
(dp5550
g18
F0.5
sg19
I63
sg20
g21
((dp5551
I00
I63
stp5552
Rp5553
sg25
I2
sg26
F64.0
sbs(g8
g2650
tp5554
g0
(g14
g2
Ntp5555
Rp5556
(dp5557
g18
F0.5
sg19
I63
sg20
g21
((dp5558
I00
I63
stp5559
Rp5560
sg25
I2
sg26
F64.0
sbs(g8
S'further'
p5561
tp5562
g0
(g14
g2
Ntp5563
Rp5564
(dp5565
g18
F0.5
sg19
I63
sg20
g21
((dp5566
I00
I62
sI01
I1
stp5567
Rp5568
sg25
I2
sg26
F64.0
sbs(g9
g1615
tp5569
g0
(g14
g2
Ntp5570
Rp5571
(dp5572
g18
F0.5
sg19
I198
sg20
g21
((dp5573
I00
I194
sI01
I4
stp5574
Rp5575
sg25
I2
sg26
F199.0
sbs(g8
S'knows'
p5576
tp5577
g0
(g14
g2
Ntp5578
Rp5579
(dp5580
g18
F0.5
sg19
I63
sg20
g21
((dp5581
I00
I63
stp5582
Rp5583
sg25
I2
sg26
F64.0
sbs(g8
g3618
tp5584
g0
(g14
g2
Ntp5585
Rp5586
(dp5587
g18
F0.5
sg19
I63
sg20
g21
((dp5588
I00
I62
sI01
I1
stp5589
Rp5590
sg25
I2
sg26
F64.0
sbs(g8
g4066
tp5591
g0
(g14
g2
Ntp5592
Rp5593
(dp5594
g18
F0.5
sg19
I63
sg20
g21
((dp5595
I00
I61
sI01
I2
stp5596
Rp5597
sg25
I2
sg26
F64.0
sbs(g9
S'seen'
p5598
tp5599
g0
(g14
g2
Ntp5600
Rp5601
(dp5602
g18
F0.5
sg19
I198
sg20
g21
((dp5603
I00
I198
stp5604
Rp5605
sg25
I2
sg26
F199.0
sbs(g9
g1976
tp5606
g0
(g14
g2
Ntp5607
Rp5608
(dp5609
g18
F0.5
sg19
I198
sg20
g21
((dp5610
I00
I197
sI01
I1
stp5611
Rp5612
sg25
I2
sg26
F199.0
sbs(g9
g1992
tp5613
g0
(g14
g2
Ntp5614
Rp5615
(dp5616
g18
F0.5
sg19
I198
sg20
g21
((dp5617
I00
I198
stp5618
Rp5619
sg25
I1
sg26
F198.5
sbs(g8
g4335
tp5620
g0
(g14
g2
Ntp5621
Rp5622
(dp5623
g18
F0.5
sg19
I63
sg20
g21
((dp5624
I00
I63
stp5625
Rp5626
sg25
I1
sg26
F63.5
sbs(g8
g3181
tp5627
g0
(g14
g2
Ntp5628
Rp5629
(dp5630
g18
F0.5
sg19
I63
sg20
g21
((dp5631
I00
I63
stp5632
Rp5633
sg25
I2
sg26
F64.0
sbs(g8
g3822
tp5634
g0
(g14
g2
Ntp5635
Rp5636
(dp5637
g18
F0.5
sg19
I63
sg20
g21
((dp5638
I00
I62
sI01
I1
stp5639
Rp5640
sg25
I2
sg26
F64.0
sbs(g9
g920
tp5641
g0
(g14
g2
Ntp5642
Rp5643
(dp5644
g18
F0.5
sg19
I198
sg20
g21
((dp5645
I00
I198
stp5646
Rp5647
sg25
I2
sg26
F199.0
sbs(g8
g1568
tp5648
g0
(g14
g2
Ntp5649
Rp5650
(dp5651
g18
F0.5
sg19
I63
sg20
g21
((dp5652
I00
I61
sI01
I2
stp5653
Rp5654
sg25
I2
sg26
F64.0
sbs(g8
g2117
tp5655
g0
(g14
g2
Ntp5656
Rp5657
(dp5658
g18
F0.5
sg19
I63
sg20
g21
((dp5659
I00
I63
stp5660
Rp5661
sg25
I2
sg26
F64.0
sbs(g8
g4800
tp5662
g0
(g14
g2
Ntp5663
Rp5664
(dp5665
g18
F0.5
sg19
I63
sg20
g21
((dp5666
I00
I63
stp5667
Rp5668
sg25
I2
sg26
F64.0
sbs(g8
S'pull'
p5669
tp5670
g0
(g14
g2
Ntp5671
Rp5672
(dp5673
g18
F0.5
sg19
I63
sg20
g21
((dp5674
I00
I63
stp5675
Rp5676
sg25
I2
sg26
F64.0
sbs(g8
g5156
tp5677
g0
(g14
g2
Ntp5678
Rp5679
(dp5680
g18
F0.5
sg19
I63
sg20
g21
((dp5681
I00
I62
sI01
I1
stp5682
Rp5683
sg25
I2
sg26
F64.0
sbs(g8
g415
tp5684
g0
(g14
g2
Ntp5685
Rp5686
(dp5687
g18
F0.5
sg19
I63
sg20
g21
((dp5688
I00
I62
sI01
I1
stp5689
Rp5690
sg25
I2
sg26
F64.0
sbs(g9
g3716
tp5691
g0
(g14
g2
Ntp5692
Rp5693
(dp5694
g18
F0.5
sg19
I198
sg20
g21
((dp5695
I00
I197
sI01
I1
stp5696
Rp5697
sg25
I2
sg26
F199.0
sbs(g8
g3724
tp5698
g0
(g14
g2
Ntp5699
Rp5700
(dp5701
g18
F0.5
sg19
I63
sg20
g21
((dp5702
I00
I62
sI01
I1
stp5703
Rp5704
sg25
I2
sg26
F64.0
sbs(g8
g1397
tp5705
g0
(g14
g2
Ntp5706
Rp5707
(dp5708
g18
F0.5
sg19
I63
sg20
g21
((dp5709
I00
I63
stp5710
Rp5711
sg25
I2
sg26
F64.0
sbs(g9
g4895
tp5712
g0
(g14
g2
Ntp5713
Rp5714
(dp5715
g18
F0.5
sg19
I198
sg20
g21
((dp5716
I00
I197
sI01
I1
stp5717
Rp5718
sg25
I2
sg26
F199.0
sbs(g8
g4058
tp5719
g0
(g14
g2
Ntp5720
Rp5721
(dp5722
g18
F0.5
sg19
I63
sg20
g21
((dp5723
I00
I61
sI01
I2
stp5724
Rp5725
sg25
I2
sg26
F64.0
sbs(g9
S'expensive'
p5726
tp5727
g0
(g14
g2
Ntp5728
Rp5729
(dp5730
g18
F0.5
sg19
I198
sg20
g21
((dp5731
I00
I198
stp5732
Rp5733
sg25
I2
sg26
F199.0
sbs(g9
g1055
tp5734
g0
(g14
g2
Ntp5735
Rp5736
(dp5737
g18
F0.5
sg19
I198
sg20
g21
((dp5738
I00
I197
sI01
I1
stp5739
Rp5740
sg25
I2
sg26
F199.0
sbs(g8
g1481
tp5741
g0
(g14
g2
Ntp5742
Rp5743
(dp5744
g18
F0.5
sg19
I63
sg20
g21
((dp5745
I00
I62
sI01
I1
stp5746
Rp5747
sg25
I2
sg26
F64.0
sbs(g9
S'decision.i'
p5748
tp5749
g0
(g14
g2
Ntp5750
Rp5751
(dp5752
g18
F0.5
sg19
I198
sg20
g21
((dp5753
I00
I198
stp5754
Rp5755
sg25
I1
sg26
F198.5
sbs(g9
S'cheap'
p5756
tp5757
g0
(g14
g2
Ntp5758
Rp5759
(dp5760
g18
F0.5
sg19
I198
sg20
g21
((dp5761
I00
I196
sI01
I2
stp5762
Rp5763
sg25
I2
sg26
F199.0
sbs(g8
g4394
tp5764
g0
(g14
g2
Ntp5765
Rp5766
(dp5767
g18
F0.5
sg19
I63
sg20
g21
((dp5768
I00
I63
stp5769
Rp5770
sg25
I2
sg26
F64.0
sbs(g9
g203
tp5771
g0
(g14
g2
Ntp5772
Rp5773
(dp5774
g18
F0.5
sg19
I198
sg20
g21
((dp5775
I00
I198
stp5776
Rp5777
sg25
I2
sg26
F199.0
sbs(g8
S'gained'
p5778
tp5779
g0
(g14
g2
Ntp5780
Rp5781
(dp5782
g18
F0.5
sg19
I63
sg20
g21
((dp5783
I00
I63
stp5784
Rp5785
sg25
I2
sg26
F64.0
sbs(g8
g3028
tp5786
g0
(g14
g2
Ntp5787
Rp5788
(dp5789
g18
F0.5
sg19
I63
sg20
g21
((dp5790
I00
I63
stp5791
Rp5792
sg25
I2
sg26
F64.0
sbs(g9
S'gon'
p5793
tp5794
g0
(g14
g2
Ntp5795
Rp5796
(dp5797
g18
F0.5
sg19
I198
sg20
g21
((dp5798
I00
I194
sI01
I4
stp5799
Rp5800
sg25
I2
sg26
F199.0
sbs(g8
g4461
tp5801
g0
(g14
g2
Ntp5802
Rp5803
(dp5804
g18
F0.5
sg19
I63
sg20
g21
((dp5805
I00
I63
stp5806
Rp5807
sg25
I2
sg26
F64.0
sbs(g8
g4174
tp5808
g0
(g14
g2
Ntp5809
Rp5810
(dp5811
g18
F0.5
sg19
I63
sg20
g21
((dp5812
I00
I62
sI01
I1
stp5813
Rp5814
sg25
I2
sg26
F64.0
sbs(g8
g4646
tp5815
g0
(g14
g2
Ntp5816
Rp5817
(dp5818
g18
F0.5
sg19
I63
sg20
g21
((dp5819
I00
I63
stp5820
Rp5821
sg25
I1
sg26
F63.5
sbs(g8
S'join'
p5822
tp5823
g0
(g14
g2
Ntp5824
Rp5825
(dp5826
g18
F0.5
sg19
I63
sg20
g21
((dp5827
I00
I63
stp5828
Rp5829
sg25
I2
sg26
F64.0
sbs(g8
g2789
tp5830
g0
(g14
g2
Ntp5831
Rp5832
(dp5833
g18
F0.5
sg19
I63
sg20
g21
((dp5834
I00
I63
stp5835
Rp5836
sg25
I2
sg26
F64.0
sbs(g9
g5778
tp5837
g0
(g14
g2
Ntp5838
Rp5839
(dp5840
g18
F0.5
sg19
I198
sg20
g21
((dp5841
I00
I197
sI01
I1
stp5842
Rp5843
sg25
I2
sg26
F199.0
sbs(g9
g5172
tp5844
g0
(g14
g2
Ntp5845
Rp5846
(dp5847
g18
F0.5
sg19
I198
sg20
g21
((dp5848
I00
I197
sI01
I1
stp5849
Rp5850
sg25
I2
sg26
F199.0
sbs(g9
g1771
tp5851
g0
(g14
g2
Ntp5852
Rp5853
(dp5854
g18
F0.5
sg19
I198
sg20
g21
((dp5855
I00
I198
stp5856
Rp5857
sg25
I2
sg26
F199.0
sbs(g9
g4276
tp5858
g0
(g14
g2
Ntp5859
Rp5860
(dp5861
g18
F0.5
sg19
I198
sg20
g21
((dp5862
I00
I196
sI01
I2
stp5863
Rp5864
sg25
I2
sg26
F199.0
sbs(g8
g3527
tp5865
g0
(g14
g2
Ntp5866
Rp5867
(dp5868
g18
F0.5
sg19
I63
sg20
g21
((dp5869
I00
I61
sI01
I2
stp5870
Rp5871
sg25
I2
sg26
F64.0
sbs(g9
g2030
tp5872
g0
(g14
g2
Ntp5873
Rp5874
(dp5875
g18
F0.5
sg19
I198
sg20
g21
((dp5876
I00
I197
sI01
I1
stp5877
Rp5878
sg25
I2
sg26
F199.0
sbs(g8
g1209
tp5879
g0
(g14
g2
Ntp5880
Rp5881
(dp5882
g18
F0.5
sg19
I63
sg20
g21
((dp5883
I00
I63
stp5884
Rp5885
sg25
I2
sg26
F64.0
sbs(g9
g777
tp5886
g0
(g14
g2
Ntp5887
Rp5888
(dp5889
g18
F0.5
sg19
I198
sg20
g21
((dp5890
I00
I198
stp5891
Rp5892
sg25
I1
sg26
F198.5
sbs(g8
g2883
tp5893
g0
(g14
g2
Ntp5894
Rp5895
(dp5896
g18
F0.5
sg19
I63
sg20
g21
((dp5897
I00
I63
stp5898
Rp5899
sg25
I2
sg26
F64.0
sbs(g9
S'up'
p5900
tp5901
g0
(g14
g2
Ntp5902
Rp5903
(dp5904
g18
F0.5
sg19
I198
sg20
g21
((dp5905
I00
I180
sI01
I18
stp5906
Rp5907
sg25
I2
sg26
F199.0
sbs(g9
g1240
tp5908
g0
(g14
g2
Ntp5909
Rp5910
(dp5911
g18
F0.5
sg19
I198
sg20
g21
((dp5912
I00
I197
sI01
I1
stp5913
Rp5914
sg25
I2
sg26
F199.0
sbs(g9
g3960
tp5915
g0
(g14
g2
Ntp5916
Rp5917
(dp5918
g18
F0.5
sg19
I198
sg20
g21
((dp5919
I00
I198
stp5920
Rp5921
sg25
I2
sg26
F199.0
sbs(g8
g5748
tp5922
g0
(g14
g2
Ntp5923
Rp5924
(dp5925
g18
F0.5
sg19
I63
sg20
g21
((dp5926
I00
I63
stp5927
Rp5928
sg25
I1
sg26
F63.5
sbs(g8
S'downstream'
p5929
tp5930
g0
(g14
g2
Ntp5931
Rp5932
(dp5933
g18
F0.5
sg19
I63
sg20
g21
((dp5934
I00
I63
stp5935
Rp5936
sg25
I2
sg26
F64.0
sbs(g9
g5061
tp5937
g0
(g14
g2
Ntp5938
Rp5939
(dp5940
g18
F0.5
sg19
I198
sg20
g21
((dp5941
I00
I197
sI01
I1
stp5942
Rp5943
sg25
I2
sg26
F199.0
sbs(g8
S'totally'
p5944
tp5945
g0
(g14
g2
Ntp5946
Rp5947
(dp5948
g18
F0.5
sg19
I63
sg20
g21
((dp5949
I00
I63
stp5950
Rp5951
sg25
I2
sg26
F64.0
sbs(g9
g12
tp5952
g0
(g14
g2
Ntp5953
Rp5954
(dp5955
g18
F0.5
sg19
I198
sg20
g21
((dp5956
I00
I198
stp5957
Rp5958
sg25
I2
sg26
F199.0
sbs(g9
S'scalped'
p5959
tp5960
g0
(g14
g2
Ntp5961
Rp5962
(dp5963
g18
F0.5
sg19
I198
sg20
g21
((dp5964
I00
I197
sI01
I1
stp5965
Rp5966
sg25
I2
sg26
F199.0
sbs(g8
g2223
tp5967
g0
(g14
g2
Ntp5968
Rp5969
(dp5970
g18
F0.5
sg19
I63
sg20
g21
((dp5971
I00
I59
sI01
I4
stp5972
Rp5973
sg25
I2
sg26
F64.0
sbs(g8
g1779
tp5974
g0
(g14
g2
Ntp5975
Rp5976
(dp5977
g18
F0.5
sg19
I63
sg20
g21
((dp5978
I00
I63
stp5979
Rp5980
sg25
I2
sg26
F64.0
sbs(g8
g2355
tp5981
g0
(g14
g2
Ntp5982
Rp5983
(dp5984
g18
F0.5
sg19
I63
sg20
g21
((dp5985
I00
I61
sI01
I2
stp5986
Rp5987
sg25
I2
sg26
F64.0
sbs(g9
g5475
tp5988
g0
(g14
g2
Ntp5989
Rp5990
(dp5991
g18
F0.5
sg19
I198
sg20
g21
((dp5992
I00
I198
stp5993
Rp5994
sg25
I2
sg26
F199.0
sbs(g9
S'show'
p5995
tp5996
g0
(g14
g2
Ntp5997
Rp5998
(dp5999
g18
F0.5
sg19
I198
sg20
g21
((dp6000
I00
I198
stp6001
Rp6002
sg25
I2
sg26
F199.0
sbs(g9
g3888
tp6003
g0
(g14
g2
Ntp6004
Rp6005
(dp6006
g18
F0.5
sg19
I198
sg20
g21
((dp6007
I00
I198
stp6008
Rp6009
sg25
I1
sg26
F198.5
sbs(g9
g274
tp6010
g0
(g14
g2
Ntp6011
Rp6012
(dp6013
g18
F0.5
sg19
I198
sg20
g21
((dp6014
I00
I197
sI01
I1
stp6015
Rp6016
sg25
I2
sg26
F199.0
sbs(g9
g1740
tp6017
g0
(g14
g2
Ntp6018
Rp6019
(dp6020
g18
F0.5
sg19
I198
sg20
g21
((dp6021
I00
I197
sI01
I1
stp6022
Rp6023
sg25
I2
sg26
F199.0
sbs(g9
g5525
tp6024
g0
(g14
g2
Ntp6025
Rp6026
(dp6027
g18
F0.5
sg19
I198
sg20
g21
((dp6028
I00
I185
sI01
I13
stp6029
Rp6030
sg25
I2
sg26
F199.0
sbs(g8
g4028
tp6031
g0
(g14
g2
Ntp6032
Rp6033
(dp6034
g18
F0.5
sg19
I63
sg20
g21
((dp6035
I00
I62
sI01
I1
stp6036
Rp6037
sg25
I2
sg26
F64.0
sbs(g8
S'believe'
p6038
tp6039
g0
(g14
g2
Ntp6040
Rp6041
(dp6042
g18
F0.5
sg19
I63
sg20
g21
((dp6043
I00
I63
stp6044
Rp6045
sg25
I2
sg26
F64.0
sbs(g9
g4043
tp6046
g0
(g14
g2
Ntp6047
Rp6048
(dp6049
g18
F0.5
sg19
I198
sg20
g21
((dp6050
I00
I197
sI01
I1
stp6051
Rp6052
sg25
I2
sg26
F199.0
sbs(g8
g5995
tp6053
g0
(g14
g2
Ntp6054
Rp6055
(dp6056
g18
F0.5
sg19
I63
sg20
g21
((dp6057
I00
I59
sI01
I4
stp6058
Rp6059
sg25
I2
sg26
F64.0
sbs(g8
S'that..'
p6060
tp6061
g0
(g14
g2
Ntp6062
Rp6063
(dp6064
g18
F0.5
sg19
I63
sg20
g21
((dp6065
I00
I63
stp6066
Rp6067
sg25
I2
sg26
F64.0
sbs(g9
g4784
tp6068
g0
(g14
g2
Ntp6069
Rp6070
(dp6071
g18
F0.5
sg19
I198
sg20
g21
((dp6072
I00
I198
stp6073
Rp6074
sg25
I1
sg26
F198.5
sbs(g9
g4925
tp6075
g0
(g14
g2
Ntp6076
Rp6077
(dp6078
g18
F0.5
sg19
I198
sg20
g21
((dp6079
I00
I198
stp6080
Rp6081
sg25
I2
sg26
F199.0
sbs(g9
g2559
tp6082
g0
(g14
g2
Ntp6083
Rp6084
(dp6085
g18
F0.5
sg19
I198
sg20
g21
((dp6086
I00
I198
stp6087
Rp6088
sg25
I2
sg26
F199.0
sbs(g8
g3096
tp6089
g0
(g14
g2
Ntp6090
Rp6091
(dp6092
g18
F0.5
sg19
I63
sg20
g21
((dp6093
I00
I63
stp6094
Rp6095
sg25
I2
sg26
F64.0
sbs(g9
g2689
tp6096
g0
(g14
g2
Ntp6097
Rp6098
(dp6099
g18
F0.5
sg19
I198
sg20
g21
((dp6100
I00
I193
sI01
I5
stp6101
Rp6102
sg25
I2
sg26
F199.0
sbs(g8
g928
tp6103
g0
(g14
g2
Ntp6104
Rp6105
(dp6106
g18
F0.5
sg19
I63
sg20
g21
((dp6107
I00
I63
stp6108
Rp6109
sg25
I2
sg26
F64.0
sbs(g8
g574
tp6110
g0
(g14
g2
Ntp6111
Rp6112
(dp6113
g18
F0.5
sg19
I63
sg20
g21
((dp6114
I00
I61
sI01
I2
stp6115
Rp6116
sg25
I2
sg26
F64.0
sbs(g9
g5929
tp6117
g0
(g14
g2
Ntp6118
Rp6119
(dp6120
g18
F0.5
sg19
I198
sg20
g21
((dp6121
I00
I197
sI01
I1
stp6122
Rp6123
sg25
I2
sg26
F199.0
sbs(g9
g5944
tp6124
g0
(g14
g2
Ntp6125
Rp6126
(dp6127
g18
F0.5
sg19
I198
sg20
g21
((dp6128
I00
I197
sI01
I1
stp6129
Rp6130
sg25
I2
sg26
F199.0
sbs(g8
g1512
tp6131
g0
(g14
g2
Ntp6132
Rp6133
(dp6134
g18
F0.5
sg19
I63
sg20
g21
((dp6135
I00
I63
stp6136
Rp6137
sg25
I2
sg26
F64.0
sbs(g9
g5336
tp6138
g0
(g14
g2
Ntp6139
Rp6140
(dp6141
g18
F0.5
sg19
I198
sg20
g21
((dp6142
I00
I198
stp6143
Rp6144
sg25
I2
sg26
F199.0
sbs(g9
g1528
tp6145
g0
(g14
g2
Ntp6146
Rp6147
(dp6148
g18
F0.5
sg19
I198
sg20
g21
((dp6149
I00
I198
stp6150
Rp6151
sg25
I2
sg26
F199.0
sbs(g8
g5959
tp6152
g0
(g14
g2
Ntp6153
Rp6154
(dp6155
g18
F0.5
sg19
I63
sg20
g21
((dp6156
I00
I63
stp6157
Rp6158
sg25
I2
sg26
F64.0
sbs(g8
g2626
tp6159
g0
(g14
g2
Ntp6160
Rp6161
(dp6162
g18
F0.5
sg19
I63
sg20
g21
((dp6163
I00
I62
sI01
I1
stp6164
Rp6165
sg25
I2
sg26
F64.0
sbs(g9
g3212
tp6166
g0
(g14
g2
Ntp6167
Rp6168
(dp6169
g18
F0.5
sg19
I198
sg20
g21
((dp6170
I00
I198
stp6171
Rp6172
sg25
I2
sg26
F199.0
sbs(g9
g4409
tp6173
g0
(g14
g2
Ntp6174
Rp6175
(dp6176
g18
F0.5
sg19
I198
sg20
g21
((dp6177
I00
I197
sI01
I1
stp6178
Rp6179
sg25
I2
sg26
F199.0
sbs(g8
g3754
tp6180
g0
(g14
g2
Ntp6181
Rp6182
(dp6183
g18
F0.5
sg19
I63
sg20
g21
((dp6184
I00
I62
sI01
I1
stp6185
Rp6186
sg25
I2
sg26
F64.0
sbs(g9
S'//markets.businessinsider.com/news/stocks/anti-big-tech-push-is-doomed-2017-9-1002376233'
p6187
tp6188
g0
(g14
g2
Ntp6189
Rp6190
(dp6191
g18
F0.5
sg19
I198
sg20
g21
((dp6192
I00
I197
sI01
I1
stp6193
Rp6194
sg25
I2
sg26
F199.0
sbs(g8
g3165
tp6195
g0
(g14
g2
Ntp6196
Rp6197
(dp6198
g18
F0.5
sg19
I63
sg20
g21
((dp6199
I00
I63
stp6200
Rp6201
sg25
I2
sg26
F64.0
sbs(g8
S'watch'
p6202
tp6203
g0
(g14
g2
Ntp6204
Rp6205
(dp6206
g18
F0.5
sg19
I63
sg20
g21
((dp6207
I00
I63
stp6208
Rp6209
sg25
I2
sg26
F64.0
sbs(g8
g1442
tp6210
g0
(g14
g2
Ntp6211
Rp6212
(dp6213
g18
F0.5
sg19
I63
sg20
g21
((dp6214
I00
I62
sI01
I1
stp6215
Rp6216
sg25
I2
sg26
F64.0
sbs(g8
g5900
tp6217
g0
(g14
g2
Ntp6218
Rp6219
(dp6220
g18
F0.5
sg19
I63
sg20
g21
((dp6221
I00
I59
sI01
I4
stp6222
Rp6223
sg25
I2
sg26
F64.0
sbs(g9
g2078
tp6224
g0
(g14
g2
Ntp6225
Rp6226
(dp6227
g18
F0.5
sg19
I198
sg20
g21
((dp6228
I00
I197
sI01
I1
stp6229
Rp6230
sg25
I2
sg26
F199.0
sbs(g9
g375
tp6231
g0
(g14
g2
Ntp6232
Rp6233
(dp6234
g18
F0.5
sg19
I198
sg20
g21
((dp6235
I00
I197
sI01
I1
stp6236
Rp6237
sg25
I2
sg26
F199.0
sbs(g9
S'q-4'
p6238
tp6239
g0
(g14
g2
Ntp6240
Rp6241
(dp6242
g18
F0.5
sg19
I198
sg20
g21
((dp6243
I00
I198
stp6244
Rp6245
sg25
I1
sg26
F198.5
sbs(g9
g3296
tp6246
g0
(g14
g2
Ntp6247
Rp6248
(dp6249
g18
F0.5
sg19
I198
sg20
g21
((dp6250
I00
I197
sI01
I1
stp6251
Rp6252
sg25
I2
sg26
F199.0
sbs(g9
g2859
tp6253
g0
(g14
g2
Ntp6254
Rp6255
(dp6256
g18
F0.5
sg19
I198
sg20
g21
((dp6257
I00
I197
sI01
I1
stp6258
Rp6259
sg25
I2
sg26
F199.0
sbs(g9
g2735
tp6260
g0
(g14
g2
Ntp6261
Rp6262
(dp6263
g18
F0.5
sg19
I198
sg20
g21
((dp6264
I00
I191
sI01
I7
stp6265
Rp6266
sg25
I2
sg26
F199.0
sbs(g8
g1536
tp6267
g0
(g14
g2
Ntp6268
Rp6269
(dp6270
g18
F0.5
sg19
I63
sg20
g21
((dp6271
I00
I63
stp6272
Rp6273
sg25
I2
sg26
F64.0
sbs(g9
g620
tp6274
g0
(g14
g2
Ntp6275
Rp6276
(dp6277
g18
F0.5
sg19
I198
sg20
g21
((dp6278
I00
I197
sI01
I1
stp6279
Rp6280
sg25
I2
sg26
F199.0
sbs(g8
g5148
tp6281
g0
(g14
g2
Ntp6282
Rp6283
(dp6284
g18
F0.5
sg19
I63
sg20
g21
((dp6285
I00
I62
sI01
I1
stp6286
Rp6287
sg25
I2
sg26
F64.0
sbs(g8
g3603
tp6288
g0
(g14
g2
Ntp6289
Rp6290
(dp6291
g18
F0.5
sg19
I63
sg20
g21
((dp6292
I00
I63
stp6293
Rp6294
sg25
I2
sg26
F64.0
sbs(g8
g6238
tp6295
g0
(g14
g2
Ntp6296
Rp6297
(dp6298
g18
F0.5
sg19
I63
sg20
g21
((dp6299
I00
I63
stp6300
Rp6301
sg25
I1
sg26
F63.5
sbs(g8
g2277
tp6302
g0
(g14
g2
Ntp6303
Rp6304
(dp6305
g18
F0.5
sg19
I63
sg20
g21
((dp6306
I00
I63
stp6307
Rp6308
sg25
I2
sg26
F64.0
sbs(g8
g3446
tp6309
g0
(g14
g2
Ntp6310
Rp6311
(dp6312
g18
F0.5
sg19
I63
sg20
g21
((dp6313
I00
I62
sI01
I1
stp6314
Rp6315
sg25
I2
sg26
F64.0
sbs(g8
S'//www.businessinsider.com/adjusted-earnings-artificially-inflating-stock-prices-2017-9'
p6316
tp6317
g0
(g14
g2
Ntp6318
Rp6319
(dp6320
g18
F0.5
sg19
I63
sg20
g21
((dp6321
I00
I62
sI01
I1
stp6322
Rp6323
sg25
I2
sg26
F64.0
sbs(g9
g2967
tp6324
g0
(g14
g2
Ntp6325
Rp6326
(dp6327
g18
F0.5
sg19
I198
sg20
g21
((dp6328
I00
I197
sI01
I1
stp6329
Rp6330
sg25
I2
sg26
F199.0
sbs(g9
g1132
tp6331
g0
(g14
g2
Ntp6332
Rp6333
(dp6334
g18
F0.5
sg19
I198
sg20
g21
((dp6335
I00
I198
stp6336
Rp6337
sg25
I1
sg26
F198.5
sbs(g9
g5244
tp6338
g0
(g14
g2
Ntp6339
Rp6340
(dp6341
g18
F0.5
sg19
I198
sg20
g21
((dp6342
I00
I196
sI01
I2
stp6343
Rp6344
sg25
I2
sg26
F199.0
sbs(g9
g6202
tp6345
g0
(g14
g2
Ntp6346
Rp6347
(dp6348
g18
F0.5
sg19
I198
sg20
g21
((dp6349
I00
I194
sI01
I4
stp6350
Rp6351
sg25
I2
sg26
F199.0
sbs(g9
g2215
tp6352
g0
(g14
g2
Ntp6353
Rp6354
(dp6355
g18
F0.5
sg19
I198
sg20
g21
((dp6356
I00
I197
sI01
I1
stp6357
Rp6358
sg25
I2
sg26
F199.0
sbs(g9
S'//oilprice.com/energy/oil-prices/goldman-sachs-oil-majors-see-upside-at-50-oil.html'
p6359
tp6360
g0
(g14
g2
Ntp6361
Rp6362
(dp6363
g18
F0.5
sg19
I198
sg20
g21
((dp6364
I00
I198
stp6365
Rp6366
sg25
I1
sg26
F198.5
sbs(g8
g5118
tp6367
g0
(g14
g2
Ntp6368
Rp6369
(dp6370
g18
F0.5
sg19
I63
sg20
g21
((dp6371
I00
I63
stp6372
Rp6373
sg25
I2
sg26
F64.0
sbs(g8
g1732
tp6374
g0
(g14
g2
Ntp6375
Rp6376
(dp6377
g18
F0.5
sg19
I63
sg20
g21
((dp6378
I00
I63
stp6379
Rp6380
sg25
I2
sg26
F64.0
sbs(g8
g2875
tp6381
g0
(g14
g2
Ntp6382
Rp6383
(dp6384
g18
F0.5
sg19
I63
sg20
g21
((dp6385
I00
I63
stp6386
Rp6387
sg25
I2
sg26
F64.0
sbs(g8
g636
tp6388
g0
(g14
g2
Ntp6389
Rp6390
(dp6391
g18
F0.5
sg19
I63
sg20
g21
((dp6392
I00
I63
stp6393
Rp6394
sg25
I2
sg26
F64.0
sbs(g8
g2891
tp6395
g0
(g14
g2
Ntp6396
Rp6397
(dp6398
g18
F0.5
sg19
I63
sg20
g21
((dp6399
I00
I63
stp6400
Rp6401
sg25
I2
sg26
F64.0
sbs(g8
g5598
tp6402
g0
(g14
g2
Ntp6403
Rp6404
(dp6405
g18
F0.5
sg19
I63
sg20
g21
((dp6406
I00
I62
sI01
I1
stp6407
Rp6408
sg25
I2
sg26
F64.0
sbs(g8
g2666
tp6409
g0
(g14
g2
Ntp6410
Rp6411
(dp6412
g18
F0.5
sg19
I63
sg20
g21
((dp6413
I00
I63
stp6414
Rp6415
sg25
I2
sg26
F64.0
sbs(g9
g5561
tp6416
g0
(g14
g2
Ntp6417
Rp6418
(dp6419
g18
F0.5
sg19
I198
sg20
g21
((dp6420
I00
I197
sI01
I1
stp6421
Rp6422
sg25
I2
sg26
F199.0
sbs(g9
g5423
tp6423
g0
(g14
g2
Ntp6424
Rp6425
(dp6426
g18
F0.5
sg19
I198
sg20
g21
((dp6427
I00
I197
sI01
I1
stp6428
Rp6429
sg25
I2
sg26
F199.0
sbs(g9
g187
tp6430
g0
(g14
g2
Ntp6431
Rp6432
(dp6433
g18
F0.5
sg19
I198
sg20
g21
((dp6434
I00
I198
stp6435
Rp6436
sg25
I2
sg26
F199.0
sbs(g9
g2813
tp6437
g0
(g14
g2
Ntp6438
Rp6439
(dp6440
g18
F0.5
sg19
I198
sg20
g21
((dp6441
I00
I197
sI01
I1
stp6442
Rp6443
sg25
I2
sg26
F199.0
sbs(g8
g2634
tp6444
g0
(g14
g2
Ntp6445
Rp6446
(dp6447
g18
F0.5
sg19
I63
sg20
g21
((dp6448
I00
I62
sI01
I1
stp6449
Rp6450
sg25
I2
sg26
F64.0
sbs(g8
g463
tp6451
g0
(g14
g2
Ntp6452
Rp6453
(dp6454
g18
F0.5
sg19
I63
sg20
g21
((dp6455
I00
I63
stp6456
Rp6457
sg25
I1
sg26
F63.5
sbs(g9
g6038
tp6458
g0
(g14
g2
Ntp6459
Rp6460
(dp6461
g18
F0.5
sg19
I198
sg20
g21
((dp6462
I00
I196
sI01
I2
stp6463
Rp6464
sg25
I2
sg26
F199.0
sbs(g8
g1809
tp6465
g0
(g14
g2
Ntp6466
Rp6467
(dp6468
g18
F0.5
sg19
I63
sg20
g21
((dp6469
I00
I63
stp6470
Rp6471
sg25
I2
sg26
F64.0
sbs(g9
g3370
tp6472
g0
(g14
g2
Ntp6473
Rp6474
(dp6475
g18
F0.5
sg19
I198
sg20
g21
((dp6476
I00
I197
sI01
I1
stp6477
Rp6478
sg25
I2
sg26
F199.0
sbs(g9
g4364
tp6479
g0
(g14
g2
Ntp6480
Rp6481
(dp6482
g18
F0.5
sg19
I198
sg20
g21
((dp6483
I00
I194
sI01
I4
stp6484
Rp6485
sg25
I2
sg26
F199.0
sbs(g8
g4933
tp6486
g0
(g14
g2
Ntp6487
Rp6488
(dp6489
g18
F0.5
sg19
I63
sg20
g21
((dp6490
I00
I63
stp6491
Rp6492
sg25
I2
sg26
F64.0
sbs(g9
g1086
tp6493
g0
(g14
g2
Ntp6494
Rp6495
(dp6496
g18
F0.5
sg19
I198
sg20
g21
((dp6497
I00
I197
sI01
I1
stp6498
Rp6499
sg25
I2
sg26
F199.0
sbs(g8
g3858
tp6500
g0
(g14
g2
Ntp6501
Rp6502
(dp6503
g18
F0.5
sg19
I63
sg20
g21
((dp6504
I00
I63
stp6505
Rp6506
sg25
I1
sg26
F63.5
sbs(g8
g3126
tp6507
g0
(g14
g2
Ntp6508
Rp6509
(dp6510
g18
F0.5
sg19
I63
sg20
g21
((dp6511
I00
I63
stp6512
Rp6513
sg25
I2
sg26
F64.0
sbs(g9
g2551
tp6514
g0
(g14
g2
Ntp6515
Rp6516
(dp6517
g18
F0.5
sg19
I198
sg20
g21
((dp6518
I00
I196
sI01
I2
stp6519
Rp6520
sg25
I2
sg26
F199.0
sbs(g9
g3649
tp6521
g0
(g14
g2
Ntp6522
Rp6523
(dp6524
g18
F0.5
sg19
I198
sg20
g21
((dp6525
I00
I197
sI01
I1
stp6526
Rp6527
sg25
I2
sg26
F199.0
sbs(g9
S'pass'
p6528
tp6529
g0
(g14
g2
Ntp6530
Rp6531
(dp6532
g18
F0.5
sg19
I198
sg20
g21
((dp6533
I00
I197
sI01
I1
stp6534
Rp6535
sg25
I2
sg26
F199.0
sbs(g9
g35
tp6536
g0
(g14
g2
Ntp6537
Rp6538
(dp6539
g18
F0.5
sg19
I198
sg20
g21
((dp6540
I00
I197
sI01
I1
stp6541
Rp6542
sg25
I2
sg26
F199.0
sbs(g8
S'read'
p6543
tp6544
g0
(g14
g2
Ntp6545
Rp6546
(dp6547
g18
F0.5
sg19
I63
sg20
g21
((dp6548
I00
I63
stp6549
Rp6550
sg25
I2
sg26
F64.0
sbs(g8
g2070
tp6551
g0
(g14
g2
Ntp6552
Rp6553
(dp6554
g18
F0.5
sg19
I63
sg20
g21
((dp6555
I00
I62
sI01
I1
stp6556
Rp6557
sg25
I2
sg26
F64.0
sbs(g8
g4232
tp6558
g0
(g14
g2
Ntp6559
Rp6560
(dp6561
g18
F0.5
sg19
I63
sg20
g21
((dp6562
I00
I63
stp6563
Rp6564
sg25
I1
sg26
F63.5
sbs(g9
g5822
tp6565
g0
(g14
g2
Ntp6566
Rp6567
(dp6568
g18
F0.5
sg19
I198
sg20
g21
((dp6569
I00
I196
sI01
I2
stp6570
Rp6571
sg25
I2
sg26
F199.0
sbs(g8
g6528
tp6572
g0
(g14
g2
Ntp6573
Rp6574
(dp6575
g18
F0.5
sg19
I63
sg20
g21
((dp6576
I00
I63
stp6577
Rp6578
sg25
I2
sg26
F64.0
sbs(g9
S'get'
p6579
tp6580
g0
(g14
g2
Ntp6581
Rp6582
(dp6583
g18
F0.5
sg19
I198
sg20
g21
((dp6584
I00
I193
sI01
I5
stp6585
Rp6586
sg25
I2
sg26
F199.0
sbs(g9
g5379
tp6587
g0
(g14
g2
Ntp6588
Rp6589
(dp6590
g18
F0.5
sg19
I198
sg20
g21
((dp6591
I00
I197
sI01
I1
stp6592
Rp6593
sg25
I2
sg26
F199.0
sbs(g8
g3572
tp6594
g0
(g14
g2
Ntp6595
Rp6596
(dp6597
g18
F0.5
sg19
I63
sg20
g21
((dp6598
I00
I61
sI01
I2
stp6599
Rp6600
sg25
I2
sg26
F64.0
sbs(g8
g1952
tp6601
g0
(g14
g2
Ntp6602
Rp6603
(dp6604
g18
F0.5
sg19
I63
sg20
g21
((dp6605
I00
I63
stp6606
Rp6607
sg25
I2
sg26
F64.0
sbs(g8
g3746
tp6608
g0
(g14
g2
Ntp6609
Rp6610
(dp6611
g18
F0.5
sg19
I63
sg20
g21
((dp6612
I00
I63
stp6613
Rp6614
sg25
I2
sg26
F64.0
sbs(g9
g399
tp6615
g0
(g14
g2
Ntp6616
Rp6617
(dp6618
g18
F0.5
sg19
I198
sg20
g21
((dp6619
I00
I197
sI01
I1
stp6620
Rp6621
sg25
I2
sg26
F199.0
sbs(g8
g2642
tp6622
g0
(g14
g2
Ntp6623
Rp6624
(dp6625
g18
F0.5
sg19
I63
sg20
g21
((dp6626
I00
I63
stp6627
Rp6628
sg25
I2
sg26
F64.0
sbs(g8
g873
tp6629
g0
(g14
g2
Ntp6630
Rp6631
(dp6632
g18
F0.5
sg19
I63
sg20
g21
((dp6633
I00
I63
stp6634
Rp6635
sg25
I2
sg26
F64.0
sbs(g8
S'alerted'
p6636
tp6637
g0
(g14
g2
Ntp6638
Rp6639
(dp6640
g18
F0.5
sg19
I63
sg20
g21
((dp6641
I00
I63
stp6642
Rp6643
sg25
I2
sg26
F64.0
sbs(g8
g3204
tp6644
g0
(g14
g2
Ntp6645
Rp6646
(dp6647
g18
F0.5
sg19
I63
sg20
g21
((dp6648
I00
I63
stp6649
Rp6650
sg25
I2
sg26
F64.0
sbs(g8
g3189
tp6651
g0
(g14
g2
Ntp6652
Rp6653
(dp6654
g18
F0.5
sg19
I63
sg20
g21
((dp6655
I00
I63
stp6656
Rp6657
sg25
I2
sg26
F64.0
sbs(g8
g1140
tp6658
g0
(g14
g2
Ntp6659
Rp6660
(dp6661
g18
F0.5
sg19
I63
sg20
g21
((dp6662
I00
I63
stp6663
Rp6664
sg25
I2
sg26
F64.0
sbs(g9
S'also'
p6665
tp6666
g0
(g14
g2
Ntp6667
Rp6668
(dp6669
g18
F0.5
sg19
I198
sg20
g21
((dp6670
I00
I194
sI01
I4
stp6671
Rp6672
sg25
I2
sg26
F199.0
sbs(g8
g1904
tp6673
g0
(g14
g2
Ntp6674
Rp6675
(dp6676
g18
F0.5
sg19
I63
sg20
g21
((dp6677
I00
I63
stp6678
Rp6679
sg25
I2
sg26
F64.0
sbs(g8
g2975
tp6680
g0
(g14
g2
Ntp6681
Rp6682
(dp6683
g18
F0.5
sg19
I63
sg20
g21
((dp6684
I00
I62
sI01
I1
stp6685
Rp6686
sg25
I2
sg26
F64.0
sbs(g8
g3134
tp6687
g0
(g14
g2
Ntp6688
Rp6689
(dp6690
g18
F0.5
sg19
I63
sg20
g21
((dp6691
I00
I61
sI01
I2
stp6692
Rp6693
sg25
I2
sg26
F64.0
sbs(g9
g809
tp6694
g0
(g14
g2
Ntp6695
Rp6696
(dp6697
g18
F0.5
sg19
I198
sg20
g21
((dp6698
I00
I196
sI01
I2
stp6699
Rp6700
sg25
I2
sg26
F199.0
sbs(g8
g825
tp6701
g0
(g14
g2
Ntp6702
Rp6703
(dp6704
g18
F0.5
sg19
I63
sg20
g21
((dp6705
I00
I61
sI01
I2
stp6706
Rp6707
sg25
I2
sg26
F64.0
sbs(g9
g5669
tp6708
g0
(g14
g2
Ntp6709
Rp6710
(dp6711
g18
F0.5
sg19
I198
sg20
g21
((dp6712
I00
I197
sI01
I1
stp6713
Rp6714
sg25
I2
sg26
F199.0
sbs(g8
g976
tp6715
g0
(g14
g2
Ntp6716
Rp6717
(dp6718
g18
F0.5
sg19
I63
sg20
g21
((dp6719
I00
I63
stp6720
Rp6721
sg25
I2
sg26
F64.0
sbs(g8
g2386
tp6722
g0
(g14
g2
Ntp6723
Rp6724
(dp6725
g18
F0.5
sg19
I63
sg20
g21
((dp6726
I00
I62
sI01
I1
stp6727
Rp6728
sg25
I2
sg26
F64.0
sbs(g9
S'got'
p6729
tp6730
g0
(g14
g2
Ntp6731
Rp6732
(dp6733
g18
F0.5
sg19
I198
sg20
g21
((dp6734
I00
I194
sI01
I4
stp6735
Rp6736
sg25
I2
sg26
F199.0
sbs(g9
g6636
tp6737
g0
(g14
g2
Ntp6738
Rp6739
(dp6740
g18
F0.5
sg19
I198
sg20
g21
((dp6741
I00
I197
sI01
I1
stp6742
Rp6743
sg25
I2
sg26
F199.0
sbs(g8
g1968
tp6744
g0
(g14
g2
Ntp6745
Rp6746
(dp6747
g18
F0.5
sg19
I63
sg20
g21
((dp6748
I00
I61
sI01
I2
stp6749
Rp6750
sg25
I2
sg26
F64.0
sbs(g9
g1374
tp6751
g0
(g14
g2
Ntp6752
Rp6753
(dp6754
g18
F0.5
sg19
I198
sg20
g21
((dp6755
I00
I197
sI01
I1
stp6756
Rp6757
sg25
I2
sg26
F199.0
sbs(g8
g5726
tp6758
g0
(g14
g2
Ntp6759
Rp6760
(dp6761
g18
F0.5
sg19
I63
sg20
g21
((dp6762
I00
I62
sI01
I1
stp6763
Rp6764
sg25
I2
sg26
F64.0
sbs(g8
g5453
tp6765
g0
(g14
g2
Ntp6766
Rp6767
(dp6768
g18
F0.5
sg19
I63
sg20
g21
((dp6769
I00
I62
sI01
I1
stp6770
Rp6771
sg25
I2
sg26
F64.0
sbs(g9
g5576
tp6772
g0
(g14
g2
Ntp6773
Rp6774
(dp6775
g18
F0.5
sg19
I198
sg20
g21
((dp6776
I00
I197
sI01
I1
stp6777
Rp6778
sg25
I2
sg26
F199.0
sbs(g9
g195
tp6779
g0
(g14
g2
Ntp6780
Rp6781
(dp6782
g18
F0.5
sg19
I198
sg20
g21
((dp6783
I00
I198
stp6784
Rp6785
sg25
I1
sg26
F198.5
sbs(g8
g5756
tp6786
g0
(g14
g2
Ntp6787
Rp6788
(dp6789
g18
F0.5
sg19
I63
sg20
g21
((dp6790
I00
I63
stp6791
Rp6792
sg25
I2
sg26
F64.0
sbs(g9
g4594
tp6793
g0
(g14
g2
Ntp6794
Rp6795
(dp6796
g18
F0.5
sg19
I198
sg20
g21
((dp6797
I00
I197
sI01
I1
stp6798
Rp6799
sg25
I2
sg26
F199.0
sbs(g9
g3401
tp6800
g0
(g14
g2
Ntp6801
Rp6802
(dp6803
g18
F0.5
sg19
I198
sg20
g21
((dp6804
I00
I197
sI01
I1
stp6805
Rp6806
sg25
I2
sg26
F199.0
sbs(g8
g5793
tp6807
g0
(g14
g2
Ntp6808
Rp6809
(dp6810
g18
F0.5
sg19
I63
sg20
g21
((dp6811
I00
I63
stp6812
Rp6813
sg25
I2
sg26
F64.0
sbs(g9
g4638
tp6814
g0
(g14
g2
Ntp6815
Rp6816
(dp6817
g18
F0.5
sg19
I198
sg20
g21
((dp6818
I00
I197
sI01
I1
stp6819
Rp6820
sg25
I2
sg26
F199.0
sbs(g9
g5208
tp6821
g0
(g14
g2
Ntp6822
Rp6823
(dp6824
g18
F0.5
sg19
I198
sg20
g21
((dp6825
I00
I198
stp6826
Rp6827
sg25
I2
sg26
F199.0
sbs(g9
g250
tp6828
g0
(g14
g2
Ntp6829
Rp6830
(dp6831
g18
F0.5
sg19
I198
sg20
g21
((dp6832
I00
I197
sI01
I1
stp6833
Rp6834
sg25
I2
sg26
F199.0
sbs(g8
g6665
tp6835
g0
(g14
g2
Ntp6836
Rp6837
(dp6838
g18
F0.5
sg19
I63
sg20
g21
((dp6839
I00
I63
stp6840
Rp6841
sg25
I2
sg26
F64.0
sbs(g9
g6316
tp6842
g0
(g14
g2
Ntp6843
Rp6844
(dp6845
g18
F0.5
sg19
I198
sg20
g21
((dp6846
I00
I198
stp6847
Rp6848
sg25
I2
sg26
F199.0
sbs(g9
g4505
tp6849
g0
(g14
g2
Ntp6850
Rp6851
(dp6852
g18
F0.5
sg19
I198
sg20
g21
((dp6853
I00
I193
sI01
I5
stp6854
Rp6855
sg25
I2
sg26
F199.0
sbs(g8
g2239
tp6856
g0
(g14
g2
Ntp6857
Rp6858
(dp6859
g18
F0.5
sg19
I63
sg20
g21
((dp6860
I00
I61
sI01
I2
stp6861
Rp6862
sg25
I2
sg26
F64.0
sbs(g9
g4692
tp6863
g0
(g14
g2
Ntp6864
Rp6865
(dp6866
g18
F0.5
sg19
I198
sg20
g21
((dp6867
I00
I198
stp6868
Rp6869
sg25
I2
sg26
F199.0
sbs(g9
S'wonderful'
p6870
tp6871
g0
(g14
g2
Ntp6872
Rp6873
(dp6874
g18
F0.5
sg19
I198
sg20
g21
((dp6875
I00
I197
sI01
I1
stp6876
Rp6877
sg25
I2
sg26
F199.0
sbs(g8
g4543
tp6878
g0
(g14
g2
Ntp6879
Rp6880
(dp6881
g18
F0.5
sg19
I63
sg20
g21
((dp6882
I00
I63
stp6883
Rp6884
sg25
I2
sg26
F64.0
sbs(g8
g761
tp6885
g0
(g14
g2
Ntp6886
Rp6887
(dp6888
g18
F0.5
sg19
I63
sg20
g21
((dp6889
I00
I63
stp6890
Rp6891
sg25
I2
sg26
F64.0
sbs(g8
g6729
tp6892
g0
(g14
g2
Ntp6893
Rp6894
(dp6895
g18
F0.5
sg19
I63
sg20
g21
((dp6896
I00
I63
stp6897
Rp6898
sg25
I2
sg26
F64.0
sbs(g8
g2301
tp6899
g0
(g14
g2
Ntp6900
Rp6901
(dp6902
g18
F0.5
sg19
I63
sg20
g21
((dp6903
I00
I63
stp6904
Rp6905
sg25
I2
sg26
F64.0
sbs(g9
g2781
tp6906
g0
(g14
g2
Ntp6907
Rp6908
(dp6909
g18
F0.5
sg19
I198
sg20
g21
((dp6910
I00
I196
sI01
I2
stp6911
Rp6912
sg25
I2
sg26
F199.0
sbs(g9
g5415
tp6913
g0
(g14
g2
Ntp6914
Rp6915
(dp6916
g18
F0.5
sg19
I198
sg20
g21
((dp6917
I00
I197
sI01
I1
stp6918
Rp6919
sg25
I2
sg26
F199.0
sbs(g9
g487
tp6920
g0
(g14
g2
Ntp6921
Rp6922
(dp6923
g18
F0.5
sg19
I198
sg20
g21
((dp6924
I00
I197
sI01
I1
stp6925
Rp6926
sg25
I2
sg26
F199.0
sbs(g9
g502
tp6927
g0
(g14
g2
Ntp6928
Rp6929
(dp6930
g18
F0.5
sg19
I198
sg20
g21
((dp6931
I00
I197
sI01
I1
stp6932
Rp6933
sg25
I2
sg26
F199.0
sbs(g8
g6187
tp6934
g0
(g14
g2
Ntp6935
Rp6936
(dp6937
g18
F0.5
sg19
I63
sg20
g21
((dp6938
I00
I63
stp6939
Rp6940
sg25
I2
sg26
F64.0
sbs(g8
g6579
tp6941
g0
(g14
g2
Ntp6942
Rp6943
(dp6944
g18
F0.5
sg19
I63
sg20
g21
((dp6945
I00
I63
stp6946
Rp6947
sg25
I2
sg26
F64.0
sbs(g8
g1639
tp6948
g0
(g14
g2
Ntp6949
Rp6950
(dp6951
g18
F0.5
sg19
I63
sg20
g21
((dp6952
I00
I63
stp6953
Rp6954
sg25
I2
sg26
F64.0
sbs(g9
g1288
tp6955
g0
(g14
g2
Ntp6956
Rp6957
(dp6958
g18
F0.5
sg19
I198
sg20
g21
((dp6959
I00
I196
sI01
I2
stp6960
Rp6961
sg25
I2
sg26
F199.0
sbs(g9
g6543
tp6962
g0
(g14
g2
Ntp6963
Rp6964
(dp6965
g18
F0.5
sg19
I198
sg20
g21
((dp6966
I00
I197
sI01
I1
stp6967
Rp6968
sg25
I2
sg26
F199.0
sbs(g9
g6060
tp6969
g0
(g14
g2
Ntp6970
Rp6971
(dp6972
g18
F0.5
sg19
I198
sg20
g21
((dp6973
I00
I197
sI01
I1
stp6974
Rp6975
sg25
I2
sg26
F199.0
sbs(g9
g407
tp6976
g0
(g14
g2
Ntp6977
Rp6978
(dp6979
g18
F0.5
sg19
I198
sg20
g21
((dp6980
I00
I198
stp6981
Rp6982
sg25
I2
sg26
F199.0
sbs(g8
g4792
tp6983
g0
(g14
g2
Ntp6984
Rp6985
(dp6986
g18
F0.5
sg19
I63
sg20
g21
((dp6987
I00
I63
stp6988
Rp6989
sg25
I2
sg26
F64.0
sbs(g9
g2309
tp6990
g0
(g14
g2
Ntp6991
Rp6992
(dp6993
g18
F0.5
sg19
I198
sg20
g21
((dp6994
I00
I198
stp6995
Rp6996
sg25
I2
sg26
F199.0
sbs(g9
g5126
tp6997
g0
(g14
g2
Ntp6998
Rp6999
(dp7000
g18
F0.5
sg19
I198
sg20
g21
((dp7001
I00
I198
stp7002
Rp7003
sg25
I2
sg26
F199.0
sbs(g8
g4880
tp7004
g0
(g14
g2
Ntp7005
Rp7006
(dp7007
g18
F0.5
sg19
I63
sg20
g21
((dp7008
I00
I63
stp7009
Rp7010
sg25
I2
sg26
F64.0
sbs(g8
g3657
tp7011
g0
(g14
g2
Ntp7012
Rp7013
(dp7014
g18
F0.5
sg19
I63
sg20
g21
((dp7015
I00
I63
stp7016
Rp7017
sg25
I2
sg26
F64.0
sbs(g8
g6870
tp7018
g0
(g14
g2
Ntp7019
Rp7020
(dp7021
g18
F0.5
sg19
I63
sg20
g21
((dp7022
I00
I63
stp7023
Rp7024
sg25
I2
sg26
F64.0
sbs(g9
g4858
tp7025
g0
(g14
g2
Ntp7026
Rp7027
(dp7028
g18
F0.5
sg19
I198
sg20
g21
((dp7029
I00
I198
stp7030
Rp7031
sg25
I2
sg26
F199.0
sbs(g8
g6359
tp7032
g0
(g14
g2
Ntp7033
Rp7034
(dp7035
g18
F0.5
sg19
I63
sg20
g21
((dp7036
I00
I63
stp7037
Rp7038
sg25
I1
sg26
F63.5
sbssS'_label_probdist'
p7039
g0
(g14
g2
Ntp7040
Rp7041
(dp7042
g18
F0.5
sg19
I261
sg20
g21
((dp7043
g8
I63
sg9
I198
stp7044
Rp7045
sg25
I2
sg26
F262.0
sbsb.